                              1 ;--------------------------------------------------------
                              2 ; File Created by SDCC : free open source ANSI-C Compiler
                              3 ; Version 4.0.0 #11528 (Linux)
                              4 ;--------------------------------------------------------
                              5 	.module aes_192
                              6 	.optsdcc -mz80
                              7 	
                              8 ;--------------------------------------------------------
                              9 ; Public variables in this module
                             10 ;--------------------------------------------------------
                             11 	.globl _main
                             12 	.globl _AES192_Encrypt
                             13 	.globl _KeyExpansion
                             14 	.globl _ShiftRows
                             15 	.globl _SubBytes
                             16 	.globl _AddRoundKey
                             17 	.globl _puts
                             18 	.globl _printf
                             19 	.globl _putchar
                             20 ;--------------------------------------------------------
                             21 ; special function registers
                             22 ;--------------------------------------------------------
                             23 ;--------------------------------------------------------
                             24 ; ram data
                             25 ;--------------------------------------------------------
                             26 	.area _DATA
                             27 ;--------------------------------------------------------
                             28 ; ram data
                             29 ;--------------------------------------------------------
                             30 	.area _INITIALIZED
                             31 ;--------------------------------------------------------
                             32 ; absolute external ram data
                             33 ;--------------------------------------------------------
                             34 	.area _DABS (ABS)
                             35 ;--------------------------------------------------------
                             36 ; global & static initialisations
                             37 ;--------------------------------------------------------
                             38 	.area _HOME
                             39 	.area _GSINIT
                             40 	.area _GSFINAL
                             41 	.area _GSINIT
                             42 ;--------------------------------------------------------
                             43 ; Home
                             44 ;--------------------------------------------------------
                             45 	.area _HOME
                             46 	.area _HOME
                             47 ;--------------------------------------------------------
                             48 ; code
                             49 ;--------------------------------------------------------
                             50 	.area _CODE
                             51 ;aes_192.c:6: int putchar(int c) {
                             52 ;	---------------------------------
                             53 ; Function putchar
                             54 ; ---------------------------------
   0000                      55 _putchar::
                             56 ;aes_192.c:7: return c;
   0000 C1            [10]   57 	pop	bc
   0001 E1            [10]   58 	pop	hl
   0002 E5            [11]   59 	push	hl
   0003 C5            [11]   60 	push	bc
                             61 ;aes_192.c:8: }
   0004 C9            [10]   62 	ret
                             63 ;aes_192.c:35: void AddRoundKey(uint8_t round, uint8_t* state, const uint8_t* RoundKey) {
                             64 ;	---------------------------------
                             65 ; Function AddRoundKey
                             66 ; ---------------------------------
   0005                      67 _AddRoundKey::
   0005 CDr00r00      [17]   68 	call	___sdcc_enter_ix
   0008 F5            [11]   69 	push	af
   0009 3B            [ 6]   70 	dec	sp
                             71 ;aes_192.c:36: for (int i = 0; i < 16; ++i) state[i] ^= RoundKey[(round * 16) + i];
   000A 01 00 00      [10]   72 	ld	bc, #0x0000
   000D                      73 00103$:
   000D 79            [ 4]   74 	ld	a, c
   000E D6 10         [ 7]   75 	sub	a, #0x10
   0010 78            [ 4]   76 	ld	a, b
   0011 17            [ 4]   77 	rla
   0012 3F            [ 4]   78 	ccf
   0013 1F            [ 4]   79 	rra
   0014 DE 80         [ 7]   80 	sbc	a, #0x80
   0016 30 34         [12]   81 	jr	NC,00105$
   0018 DD 7E 05      [19]   82 	ld	a, 5 (ix)
   001B 81            [ 4]   83 	add	a, c
   001C 5F            [ 4]   84 	ld	e, a
   001D DD 7E 06      [19]   85 	ld	a, 6 (ix)
   0020 88            [ 4]   86 	adc	a, b
   0021 57            [ 4]   87 	ld	d, a
   0022 1A            [ 7]   88 	ld	a, (de)
   0023 DD 77 FD      [19]   89 	ld	-3 (ix), a
   0026 DD 6E 04      [19]   90 	ld	l, 4 (ix)
   0029 26 00         [ 7]   91 	ld	h, #0x00
   002B 29            [11]   92 	add	hl, hl
   002C 29            [11]   93 	add	hl, hl
   002D 29            [11]   94 	add	hl, hl
   002E 29            [11]   95 	add	hl, hl
   002F 09            [11]   96 	add	hl, bc
   0030 DD 75 FE      [19]   97 	ld	-2 (ix), l
   0033 DD 74 FF      [19]   98 	ld	-1 (ix), h
   0036 DD 7E FE      [19]   99 	ld	a, -2 (ix)
   0039 DD 86 07      [19]  100 	add	a, 7 (ix)
   003C 6F            [ 4]  101 	ld	l, a
   003D DD 7E FF      [19]  102 	ld	a, -1 (ix)
   0040 DD 8E 08      [19]  103 	adc	a, 8 (ix)
   0043 67            [ 4]  104 	ld	h, a
   0044 7E            [ 7]  105 	ld	a, (hl)
   0045 DD AE FD      [19]  106 	xor	a, -3 (ix)
   0048 12            [ 7]  107 	ld	(de), a
   0049 03            [ 6]  108 	inc	bc
   004A 18 C1         [12]  109 	jr	00103$
   004C                     110 00105$:
                            111 ;aes_192.c:37: }
   004C DD F9         [10]  112 	ld	sp, ix
   004E DD E1         [14]  113 	pop	ix
   0050 C9            [10]  114 	ret
   0051                     115 _sbox:
   0051 63                  116 	.db #0x63	; 99	'c'
   0052 7C                  117 	.db #0x7c	; 124
   0053 77                  118 	.db #0x77	; 119	'w'
   0054 7B                  119 	.db #0x7b	; 123
   0055 F2                  120 	.db #0xf2	; 242
   0056 6B                  121 	.db #0x6b	; 107	'k'
   0057 6F                  122 	.db #0x6f	; 111	'o'
   0058 C5                  123 	.db #0xc5	; 197
   0059 30                  124 	.db #0x30	; 48	'0'
   005A 01                  125 	.db #0x01	; 1
   005B 67                  126 	.db #0x67	; 103	'g'
   005C 2B                  127 	.db #0x2b	; 43
   005D FE                  128 	.db #0xfe	; 254
   005E D7                  129 	.db #0xd7	; 215
   005F AB                  130 	.db #0xab	; 171
   0060 76                  131 	.db #0x76	; 118	'v'
   0061 CA                  132 	.db #0xca	; 202
   0062 82                  133 	.db #0x82	; 130
   0063 C9                  134 	.db #0xc9	; 201
   0064 7D                  135 	.db #0x7d	; 125
   0065 FA                  136 	.db #0xfa	; 250
   0066 59                  137 	.db #0x59	; 89	'Y'
   0067 47                  138 	.db #0x47	; 71	'G'
   0068 F0                  139 	.db #0xf0	; 240
   0069 AD                  140 	.db #0xad	; 173
   006A D4                  141 	.db #0xd4	; 212
   006B A2                  142 	.db #0xa2	; 162
   006C AF                  143 	.db #0xaf	; 175
   006D 9C                  144 	.db #0x9c	; 156
   006E A4                  145 	.db #0xa4	; 164
   006F 72                  146 	.db #0x72	; 114	'r'
   0070 C0                  147 	.db #0xc0	; 192
   0071 B7                  148 	.db #0xb7	; 183
   0072 FD                  149 	.db #0xfd	; 253
   0073 93                  150 	.db #0x93	; 147
   0074 26                  151 	.db #0x26	; 38
   0075 36                  152 	.db #0x36	; 54	'6'
   0076 3F                  153 	.db #0x3f	; 63
   0077 F7                  154 	.db #0xf7	; 247
   0078 CC                  155 	.db #0xcc	; 204
   0079 34                  156 	.db #0x34	; 52	'4'
   007A A5                  157 	.db #0xa5	; 165
   007B E5                  158 	.db #0xe5	; 229
   007C F1                  159 	.db #0xf1	; 241
   007D 71                  160 	.db #0x71	; 113	'q'
   007E D8                  161 	.db #0xd8	; 216
   007F 31                  162 	.db #0x31	; 49	'1'
   0080 15                  163 	.db #0x15	; 21
   0081 04                  164 	.db #0x04	; 4
   0082 C7                  165 	.db #0xc7	; 199
   0083 23                  166 	.db #0x23	; 35
   0084 C3                  167 	.db #0xc3	; 195
   0085 18                  168 	.db #0x18	; 24
   0086 96                  169 	.db #0x96	; 150
   0087 05                  170 	.db #0x05	; 5
   0088 9A                  171 	.db #0x9a	; 154
   0089 07                  172 	.db #0x07	; 7
   008A 12                  173 	.db #0x12	; 18
   008B 80                  174 	.db #0x80	; 128
   008C E2                  175 	.db #0xe2	; 226
   008D EB                  176 	.db #0xeb	; 235
   008E 27                  177 	.db #0x27	; 39
   008F B2                  178 	.db #0xb2	; 178
   0090 75                  179 	.db #0x75	; 117	'u'
   0091 09                  180 	.db #0x09	; 9
   0092 83                  181 	.db #0x83	; 131
   0093 2C                  182 	.db #0x2c	; 44
   0094 1A                  183 	.db #0x1a	; 26
   0095 1B                  184 	.db #0x1b	; 27
   0096 6E                  185 	.db #0x6e	; 110	'n'
   0097 5A                  186 	.db #0x5a	; 90	'Z'
   0098 A0                  187 	.db #0xa0	; 160
   0099 52                  188 	.db #0x52	; 82	'R'
   009A 3B                  189 	.db #0x3b	; 59
   009B D6                  190 	.db #0xd6	; 214
   009C B3                  191 	.db #0xb3	; 179
   009D 29                  192 	.db #0x29	; 41
   009E E3                  193 	.db #0xe3	; 227
   009F 2F                  194 	.db #0x2f	; 47
   00A0 84                  195 	.db #0x84	; 132
   00A1 53                  196 	.db #0x53	; 83	'S'
   00A2 D1                  197 	.db #0xd1	; 209
   00A3 00                  198 	.db #0x00	; 0
   00A4 ED                  199 	.db #0xed	; 237
   00A5 20                  200 	.db #0x20	; 32
   00A6 FC                  201 	.db #0xfc	; 252
   00A7 B1                  202 	.db #0xb1	; 177
   00A8 5B                  203 	.db #0x5b	; 91
   00A9 6A                  204 	.db #0x6a	; 106	'j'
   00AA CB                  205 	.db #0xcb	; 203
   00AB BE                  206 	.db #0xbe	; 190
   00AC 39                  207 	.db #0x39	; 57	'9'
   00AD 4A                  208 	.db #0x4a	; 74	'J'
   00AE 4C                  209 	.db #0x4c	; 76	'L'
   00AF 58                  210 	.db #0x58	; 88	'X'
   00B0 CF                  211 	.db #0xcf	; 207
   00B1 D0                  212 	.db #0xd0	; 208
   00B2 EF                  213 	.db #0xef	; 239
   00B3 AA                  214 	.db #0xaa	; 170
   00B4 FB                  215 	.db #0xfb	; 251
   00B5 43                  216 	.db #0x43	; 67	'C'
   00B6 4D                  217 	.db #0x4d	; 77	'M'
   00B7 33                  218 	.db #0x33	; 51	'3'
   00B8 85                  219 	.db #0x85	; 133
   00B9 45                  220 	.db #0x45	; 69	'E'
   00BA F9                  221 	.db #0xf9	; 249
   00BB 02                  222 	.db #0x02	; 2
   00BC 7F                  223 	.db #0x7f	; 127
   00BD 50                  224 	.db #0x50	; 80	'P'
   00BE 3C                  225 	.db #0x3c	; 60
   00BF 9F                  226 	.db #0x9f	; 159
   00C0 A8                  227 	.db #0xa8	; 168
   00C1 51                  228 	.db #0x51	; 81	'Q'
   00C2 A3                  229 	.db #0xa3	; 163
   00C3 40                  230 	.db #0x40	; 64
   00C4 8F                  231 	.db #0x8f	; 143
   00C5 92                  232 	.db #0x92	; 146
   00C6 9D                  233 	.db #0x9d	; 157
   00C7 38                  234 	.db #0x38	; 56	'8'
   00C8 F5                  235 	.db #0xf5	; 245
   00C9 BC                  236 	.db #0xbc	; 188
   00CA B6                  237 	.db #0xb6	; 182
   00CB DA                  238 	.db #0xda	; 218
   00CC 21                  239 	.db #0x21	; 33
   00CD 10                  240 	.db #0x10	; 16
   00CE FF                  241 	.db #0xff	; 255
   00CF F3                  242 	.db #0xf3	; 243
   00D0 D2                  243 	.db #0xd2	; 210
   00D1 CD                  244 	.db #0xcd	; 205
   00D2 0C                  245 	.db #0x0c	; 12
   00D3 13                  246 	.db #0x13	; 19
   00D4 EC                  247 	.db #0xec	; 236
   00D5 5F                  248 	.db #0x5f	; 95
   00D6 97                  249 	.db #0x97	; 151
   00D7 44                  250 	.db #0x44	; 68	'D'
   00D8 17                  251 	.db #0x17	; 23
   00D9 C4                  252 	.db #0xc4	; 196
   00DA A7                  253 	.db #0xa7	; 167
   00DB 7E                  254 	.db #0x7e	; 126
   00DC 3D                  255 	.db #0x3d	; 61
   00DD 64                  256 	.db #0x64	; 100	'd'
   00DE 5D                  257 	.db #0x5d	; 93
   00DF 19                  258 	.db #0x19	; 25
   00E0 73                  259 	.db #0x73	; 115	's'
   00E1 60                  260 	.db #0x60	; 96
   00E2 81                  261 	.db #0x81	; 129
   00E3 4F                  262 	.db #0x4f	; 79	'O'
   00E4 DC                  263 	.db #0xdc	; 220
   00E5 22                  264 	.db #0x22	; 34
   00E6 2A                  265 	.db #0x2a	; 42
   00E7 90                  266 	.db #0x90	; 144
   00E8 88                  267 	.db #0x88	; 136
   00E9 46                  268 	.db #0x46	; 70	'F'
   00EA EE                  269 	.db #0xee	; 238
   00EB B8                  270 	.db #0xb8	; 184
   00EC 14                  271 	.db #0x14	; 20
   00ED DE                  272 	.db #0xde	; 222
   00EE 5E                  273 	.db #0x5e	; 94
   00EF 0B                  274 	.db #0x0b	; 11
   00F0 DB                  275 	.db #0xdb	; 219
   00F1 E0                  276 	.db #0xe0	; 224
   00F2 32                  277 	.db #0x32	; 50	'2'
   00F3 3A                  278 	.db #0x3a	; 58
   00F4 0A                  279 	.db #0x0a	; 10
   00F5 49                  280 	.db #0x49	; 73	'I'
   00F6 06                  281 	.db #0x06	; 6
   00F7 24                  282 	.db #0x24	; 36
   00F8 5C                  283 	.db #0x5c	; 92
   00F9 C2                  284 	.db #0xc2	; 194
   00FA D3                  285 	.db #0xd3	; 211
   00FB AC                  286 	.db #0xac	; 172
   00FC 62                  287 	.db #0x62	; 98	'b'
   00FD 91                  288 	.db #0x91	; 145
   00FE 95                  289 	.db #0x95	; 149
   00FF E4                  290 	.db #0xe4	; 228
   0100 79                  291 	.db #0x79	; 121	'y'
   0101 E7                  292 	.db #0xe7	; 231
   0102 C8                  293 	.db #0xc8	; 200
   0103 37                  294 	.db #0x37	; 55	'7'
   0104 6D                  295 	.db #0x6d	; 109	'm'
   0105 8D                  296 	.db #0x8d	; 141
   0106 D5                  297 	.db #0xd5	; 213
   0107 4E                  298 	.db #0x4e	; 78	'N'
   0108 A9                  299 	.db #0xa9	; 169
   0109 6C                  300 	.db #0x6c	; 108	'l'
   010A 56                  301 	.db #0x56	; 86	'V'
   010B F4                  302 	.db #0xf4	; 244
   010C EA                  303 	.db #0xea	; 234
   010D 65                  304 	.db #0x65	; 101	'e'
   010E 7A                  305 	.db #0x7a	; 122	'z'
   010F AE                  306 	.db #0xae	; 174
   0110 08                  307 	.db #0x08	; 8
   0111 BA                  308 	.db #0xba	; 186
   0112 78                  309 	.db #0x78	; 120	'x'
   0113 25                  310 	.db #0x25	; 37
   0114 2E                  311 	.db #0x2e	; 46
   0115 1C                  312 	.db #0x1c	; 28
   0116 A6                  313 	.db #0xa6	; 166
   0117 B4                  314 	.db #0xb4	; 180
   0118 C6                  315 	.db #0xc6	; 198
   0119 E8                  316 	.db #0xe8	; 232
   011A DD                  317 	.db #0xdd	; 221
   011B 74                  318 	.db #0x74	; 116	't'
   011C 1F                  319 	.db #0x1f	; 31
   011D 4B                  320 	.db #0x4b	; 75	'K'
   011E BD                  321 	.db #0xbd	; 189
   011F 8B                  322 	.db #0x8b	; 139
   0120 8A                  323 	.db #0x8a	; 138
   0121 70                  324 	.db #0x70	; 112	'p'
   0122 3E                  325 	.db #0x3e	; 62
   0123 B5                  326 	.db #0xb5	; 181
   0124 66                  327 	.db #0x66	; 102	'f'
   0125 48                  328 	.db #0x48	; 72	'H'
   0126 03                  329 	.db #0x03	; 3
   0127 F6                  330 	.db #0xf6	; 246
   0128 0E                  331 	.db #0x0e	; 14
   0129 61                  332 	.db #0x61	; 97	'a'
   012A 35                  333 	.db #0x35	; 53	'5'
   012B 57                  334 	.db #0x57	; 87	'W'
   012C B9                  335 	.db #0xb9	; 185
   012D 86                  336 	.db #0x86	; 134
   012E C1                  337 	.db #0xc1	; 193
   012F 1D                  338 	.db #0x1d	; 29
   0130 9E                  339 	.db #0x9e	; 158
   0131 E1                  340 	.db #0xe1	; 225
   0132 F8                  341 	.db #0xf8	; 248
   0133 98                  342 	.db #0x98	; 152
   0134 11                  343 	.db #0x11	; 17
   0135 69                  344 	.db #0x69	; 105	'i'
   0136 D9                  345 	.db #0xd9	; 217
   0137 8E                  346 	.db #0x8e	; 142
   0138 94                  347 	.db #0x94	; 148
   0139 9B                  348 	.db #0x9b	; 155
   013A 1E                  349 	.db #0x1e	; 30
   013B 87                  350 	.db #0x87	; 135
   013C E9                  351 	.db #0xe9	; 233
   013D CE                  352 	.db #0xce	; 206
   013E 55                  353 	.db #0x55	; 85	'U'
   013F 28                  354 	.db #0x28	; 40
   0140 DF                  355 	.db #0xdf	; 223
   0141 8C                  356 	.db #0x8c	; 140
   0142 A1                  357 	.db #0xa1	; 161
   0143 89                  358 	.db #0x89	; 137
   0144 0D                  359 	.db #0x0d	; 13
   0145 BF                  360 	.db #0xbf	; 191
   0146 E6                  361 	.db #0xe6	; 230
   0147 42                  362 	.db #0x42	; 66	'B'
   0148 68                  363 	.db #0x68	; 104	'h'
   0149 41                  364 	.db #0x41	; 65	'A'
   014A 99                  365 	.db #0x99	; 153
   014B 2D                  366 	.db #0x2d	; 45
   014C 0F                  367 	.db #0x0f	; 15
   014D B0                  368 	.db #0xb0	; 176
   014E 54                  369 	.db #0x54	; 84	'T'
   014F BB                  370 	.db #0xbb	; 187
   0150 16                  371 	.db #0x16	; 22
   0151                     372 _Rcon:
   0151 8D                  373 	.db #0x8d	; 141
   0152 01                  374 	.db #0x01	; 1
   0153 02                  375 	.db #0x02	; 2
   0154 04                  376 	.db #0x04	; 4
   0155 08                  377 	.db #0x08	; 8
   0156 10                  378 	.db #0x10	; 16
   0157 20                  379 	.db #0x20	; 32
   0158 40                  380 	.db #0x40	; 64
   0159 80                  381 	.db #0x80	; 128
   015A 1B                  382 	.db #0x1b	; 27
   015B 36                  383 	.db #0x36	; 54	'6'
                            384 ;aes_192.c:39: void SubBytes(uint8_t* state) {
                            385 ;	---------------------------------
                            386 ; Function SubBytes
                            387 ; ---------------------------------
   015C                     388 _SubBytes::
   015C CDr00r00      [17]  389 	call	___sdcc_enter_ix
                            390 ;aes_192.c:40: for (int i = 0; i < 16; ++i) state[i] = sbox[state[i]];
   015F 01 00 00      [10]  391 	ld	bc, #0x0000
   0162                     392 00103$:
   0162 79            [ 4]  393 	ld	a, c
   0163 D6 10         [ 7]  394 	sub	a, #0x10
   0165 78            [ 4]  395 	ld	a, b
   0166 17            [ 4]  396 	rla
   0167 3F            [ 4]  397 	ccf
   0168 1F            [ 4]  398 	rra
   0169 DE 80         [ 7]  399 	sbc	a, #0x80
   016B 30 18         [12]  400 	jr	NC,00105$
   016D DD 7E 04      [19]  401 	ld	a, 4 (ix)
   0170 81            [ 4]  402 	add	a, c
   0171 5F            [ 4]  403 	ld	e, a
   0172 DD 7E 05      [19]  404 	ld	a, 5 (ix)
   0175 88            [ 4]  405 	adc	a, b
   0176 57            [ 4]  406 	ld	d, a
   0177 1A            [ 7]  407 	ld	a, (de)
   0178 C6r51         [ 7]  408 	add	a, #<(_sbox)
   017A 6F            [ 4]  409 	ld	l, a
   017B 3E 00         [ 7]  410 	ld	a, #0x00
   017D CEs00         [ 7]  411 	adc	a, #>(_sbox)
   017F 67            [ 4]  412 	ld	h, a
   0180 7E            [ 7]  413 	ld	a, (hl)
   0181 12            [ 7]  414 	ld	(de), a
   0182 03            [ 6]  415 	inc	bc
   0183 18 DD         [12]  416 	jr	00103$
   0185                     417 00105$:
                            418 ;aes_192.c:41: }
   0185 DD E1         [14]  419 	pop	ix
   0187 C9            [10]  420 	ret
                            421 ;aes_192.c:43: void ShiftRows(uint8_t* state) {
                            422 ;	---------------------------------
                            423 ; Function ShiftRows
                            424 ; ---------------------------------
   0188                     425 _ShiftRows::
   0188 CDr00r00      [17]  426 	call	___sdcc_enter_ix
   018B 21 EE FF      [10]  427 	ld	hl, #-18
   018E 39            [11]  428 	add	hl, sp
   018F F9            [ 6]  429 	ld	sp, hl
                            430 ;aes_192.c:45: temp[0] = state[0];  temp[1] = state[5];  temp[2] = state[10]; temp[3] = state[15];
   0190 21 00 00      [10]  431 	ld	hl, #0
   0193 39            [11]  432 	add	hl, sp
   0194 4D            [ 4]  433 	ld	c, l
   0195 44            [ 4]  434 	ld	b, h
   0196 DD 7E 04      [19]  435 	ld	a, 4 (ix)
   0199 DD 77 FE      [19]  436 	ld	-2 (ix), a
   019C DD 7E 05      [19]  437 	ld	a, 5 (ix)
   019F DD 77 FF      [19]  438 	ld	-1 (ix), a
   01A2 DD 6E FE      [19]  439 	ld	l, -2 (ix)
   01A5 DD 66 FF      [19]  440 	ld	h, -1 (ix)
   01A8 7E            [ 7]  441 	ld	a, (hl)
   01A9 02            [ 7]  442 	ld	(bc), a
   01AA 59            [ 4]  443 	ld	e, c
   01AB 50            [ 4]  444 	ld	d, b
   01AC 13            [ 6]  445 	inc	de
   01AD DD 6E FE      [19]  446 	ld	l, -2 (ix)
   01B0 DD 66 FF      [19]  447 	ld	h, -1 (ix)
   01B3 23            [ 6]  448 	inc	hl
   01B4 23            [ 6]  449 	inc	hl
   01B5 23            [ 6]  450 	inc	hl
   01B6 23            [ 6]  451 	inc	hl
   01B7 23            [ 6]  452 	inc	hl
   01B8 7E            [ 7]  453 	ld	a, (hl)
   01B9 12            [ 7]  454 	ld	(de), a
   01BA 59            [ 4]  455 	ld	e, c
   01BB 50            [ 4]  456 	ld	d, b
   01BC 13            [ 6]  457 	inc	de
   01BD 13            [ 6]  458 	inc	de
   01BE DD 6E FE      [19]  459 	ld	l, -2 (ix)
   01C1 DD 66 FF      [19]  460 	ld	h, -1 (ix)
   01C4 C5            [11]  461 	push	bc
   01C5 01 0A 00      [10]  462 	ld	bc, #0x000a
   01C8 09            [11]  463 	add	hl, bc
   01C9 C1            [10]  464 	pop	bc
   01CA 7E            [ 7]  465 	ld	a, (hl)
   01CB 12            [ 7]  466 	ld	(de), a
   01CC 59            [ 4]  467 	ld	e, c
   01CD 50            [ 4]  468 	ld	d, b
   01CE 13            [ 6]  469 	inc	de
   01CF 13            [ 6]  470 	inc	de
   01D0 13            [ 6]  471 	inc	de
   01D1 DD 6E FE      [19]  472 	ld	l, -2 (ix)
   01D4 DD 66 FF      [19]  473 	ld	h, -1 (ix)
   01D7 C5            [11]  474 	push	bc
   01D8 01 0F 00      [10]  475 	ld	bc, #0x000f
   01DB 09            [11]  476 	add	hl, bc
   01DC C1            [10]  477 	pop	bc
   01DD 7E            [ 7]  478 	ld	a, (hl)
   01DE 12            [ 7]  479 	ld	(de), a
                            480 ;aes_192.c:46: temp[4] = state[4];  temp[5] = state[9];  temp[6] = state[14]; temp[7] = state[3];
   01DF 21 04 00      [10]  481 	ld	hl, #0x0004
   01E2 09            [11]  482 	add	hl, bc
   01E3 EB            [ 4]  483 	ex	de, hl
   01E4 DD 6E FE      [19]  484 	ld	l, -2 (ix)
   01E7 DD 66 FF      [19]  485 	ld	h, -1 (ix)
   01EA 23            [ 6]  486 	inc	hl
   01EB 23            [ 6]  487 	inc	hl
   01EC 23            [ 6]  488 	inc	hl
   01ED 23            [ 6]  489 	inc	hl
   01EE 7E            [ 7]  490 	ld	a, (hl)
   01EF 12            [ 7]  491 	ld	(de), a
   01F0 21 05 00      [10]  492 	ld	hl, #0x0005
   01F3 09            [11]  493 	add	hl, bc
   01F4 EB            [ 4]  494 	ex	de, hl
   01F5 DD 6E FE      [19]  495 	ld	l, -2 (ix)
   01F8 DD 66 FF      [19]  496 	ld	h, -1 (ix)
   01FB C5            [11]  497 	push	bc
   01FC 01 09 00      [10]  498 	ld	bc, #0x0009
   01FF 09            [11]  499 	add	hl, bc
   0200 C1            [10]  500 	pop	bc
   0201 7E            [ 7]  501 	ld	a, (hl)
   0202 12            [ 7]  502 	ld	(de), a
   0203 21 06 00      [10]  503 	ld	hl, #0x0006
   0206 09            [11]  504 	add	hl, bc
   0207 EB            [ 4]  505 	ex	de, hl
   0208 DD 6E FE      [19]  506 	ld	l, -2 (ix)
   020B DD 66 FF      [19]  507 	ld	h, -1 (ix)
   020E C5            [11]  508 	push	bc
   020F 01 0E 00      [10]  509 	ld	bc, #0x000e
   0212 09            [11]  510 	add	hl, bc
   0213 C1            [10]  511 	pop	bc
   0214 7E            [ 7]  512 	ld	a, (hl)
   0215 12            [ 7]  513 	ld	(de), a
   0216 21 07 00      [10]  514 	ld	hl, #0x0007
   0219 09            [11]  515 	add	hl, bc
   021A EB            [ 4]  516 	ex	de, hl
   021B DD 6E FE      [19]  517 	ld	l, -2 (ix)
   021E DD 66 FF      [19]  518 	ld	h, -1 (ix)
   0221 23            [ 6]  519 	inc	hl
   0222 23            [ 6]  520 	inc	hl
   0223 23            [ 6]  521 	inc	hl
   0224 7E            [ 7]  522 	ld	a, (hl)
   0225 12            [ 7]  523 	ld	(de), a
                            524 ;aes_192.c:47: temp[8] = state[8];  temp[9] = state[13]; temp[10] = state[2]; temp[11] = state[7];
   0226 21 08 00      [10]  525 	ld	hl, #0x0008
   0229 09            [11]  526 	add	hl, bc
   022A EB            [ 4]  527 	ex	de, hl
   022B DD 6E FE      [19]  528 	ld	l, -2 (ix)
   022E DD 66 FF      [19]  529 	ld	h, -1 (ix)
   0231 C5            [11]  530 	push	bc
   0232 01 08 00      [10]  531 	ld	bc, #0x0008
   0235 09            [11]  532 	add	hl, bc
   0236 C1            [10]  533 	pop	bc
   0237 7E            [ 7]  534 	ld	a, (hl)
   0238 12            [ 7]  535 	ld	(de), a
   0239 21 09 00      [10]  536 	ld	hl, #0x0009
   023C 09            [11]  537 	add	hl, bc
   023D EB            [ 4]  538 	ex	de, hl
   023E DD 6E FE      [19]  539 	ld	l, -2 (ix)
   0241 DD 66 FF      [19]  540 	ld	h, -1 (ix)
   0244 C5            [11]  541 	push	bc
   0245 01 0D 00      [10]  542 	ld	bc, #0x000d
   0248 09            [11]  543 	add	hl, bc
   0249 C1            [10]  544 	pop	bc
   024A 7E            [ 7]  545 	ld	a, (hl)
   024B 12            [ 7]  546 	ld	(de), a
   024C 21 0A 00      [10]  547 	ld	hl, #0x000a
   024F 09            [11]  548 	add	hl, bc
   0250 EB            [ 4]  549 	ex	de, hl
   0251 DD 6E FE      [19]  550 	ld	l, -2 (ix)
   0254 DD 66 FF      [19]  551 	ld	h, -1 (ix)
   0257 23            [ 6]  552 	inc	hl
   0258 23            [ 6]  553 	inc	hl
   0259 7E            [ 7]  554 	ld	a, (hl)
   025A 12            [ 7]  555 	ld	(de), a
   025B 21 0B 00      [10]  556 	ld	hl, #0x000b
   025E 09            [11]  557 	add	hl, bc
   025F EB            [ 4]  558 	ex	de, hl
   0260 DD 6E FE      [19]  559 	ld	l, -2 (ix)
   0263 DD 66 FF      [19]  560 	ld	h, -1 (ix)
   0266 C5            [11]  561 	push	bc
   0267 01 07 00      [10]  562 	ld	bc, #0x0007
   026A 09            [11]  563 	add	hl, bc
   026B C1            [10]  564 	pop	bc
   026C 7E            [ 7]  565 	ld	a, (hl)
   026D 12            [ 7]  566 	ld	(de), a
                            567 ;aes_192.c:48: temp[12] = state[12]; temp[13] = state[1]; temp[14] = state[6]; temp[15] = state[11];
   026E 21 0C 00      [10]  568 	ld	hl, #0x000c
   0271 09            [11]  569 	add	hl, bc
   0272 EB            [ 4]  570 	ex	de, hl
   0273 DD 6E FE      [19]  571 	ld	l, -2 (ix)
   0276 DD 66 FF      [19]  572 	ld	h, -1 (ix)
   0279 C5            [11]  573 	push	bc
   027A 01 0C 00      [10]  574 	ld	bc, #0x000c
   027D 09            [11]  575 	add	hl, bc
   027E C1            [10]  576 	pop	bc
   027F 7E            [ 7]  577 	ld	a, (hl)
   0280 12            [ 7]  578 	ld	(de), a
   0281 21 0D 00      [10]  579 	ld	hl, #0x000d
   0284 09            [11]  580 	add	hl, bc
   0285 EB            [ 4]  581 	ex	de, hl
   0286 DD 6E FE      [19]  582 	ld	l, -2 (ix)
   0289 DD 66 FF      [19]  583 	ld	h, -1 (ix)
   028C 23            [ 6]  584 	inc	hl
   028D 7E            [ 7]  585 	ld	a, (hl)
   028E 12            [ 7]  586 	ld	(de), a
   028F 21 0E 00      [10]  587 	ld	hl, #0x000e
   0292 09            [11]  588 	add	hl, bc
   0293 EB            [ 4]  589 	ex	de, hl
   0294 DD 6E FE      [19]  590 	ld	l, -2 (ix)
   0297 DD 66 FF      [19]  591 	ld	h, -1 (ix)
   029A C5            [11]  592 	push	bc
   029B 01 06 00      [10]  593 	ld	bc, #0x0006
   029E 09            [11]  594 	add	hl, bc
   029F C1            [10]  595 	pop	bc
   02A0 7E            [ 7]  596 	ld	a, (hl)
   02A1 12            [ 7]  597 	ld	(de), a
   02A2 21 0F 00      [10]  598 	ld	hl, #0x000f
   02A5 09            [11]  599 	add	hl, bc
   02A6 EB            [ 4]  600 	ex	de, hl
   02A7 DD 6E FE      [19]  601 	ld	l, -2 (ix)
   02AA DD 66 FF      [19]  602 	ld	h, -1 (ix)
   02AD C5            [11]  603 	push	bc
   02AE 01 0B 00      [10]  604 	ld	bc, #0x000b
   02B1 09            [11]  605 	add	hl, bc
   02B2 C1            [10]  606 	pop	bc
   02B3 7E            [ 7]  607 	ld	a, (hl)
   02B4 12            [ 7]  608 	ld	(de), a
                            609 ;aes_192.c:49: memcpy(state, temp, 16);
   02B5 DD 5E 04      [19]  610 	ld	e, 4 (ix)
   02B8 DD 56 05      [19]  611 	ld	d, 5 (ix)
   02BB 69            [ 4]  612 	ld	l, c
   02BC 60            [ 4]  613 	ld	h, b
   02BD 01 10 00      [10]  614 	ld	bc, #0x0010
   02C0 ED B0         [21]  615 	ldir
                            616 ;aes_192.c:50: }
   02C2 DD F9         [10]  617 	ld	sp, ix
   02C4 DD E1         [14]  618 	pop	ix
   02C6 C9            [10]  619 	ret
                            620 ;aes_192.c:55: void KeyExpansion(uint8_t* RoundKey, const uint8_t* Key) {
                            621 ;	---------------------------------
                            622 ; Function KeyExpansion
                            623 ; ---------------------------------
   02C7                     624 _KeyExpansion::
   02C7 CDr00r00      [17]  625 	call	___sdcc_enter_ix
   02CA 21 F0 FF      [10]  626 	ld	hl, #-16
   02CD 39            [11]  627 	add	hl, sp
   02CE F9            [ 6]  628 	ld	sp, hl
                            629 ;aes_192.c:62: for (i = 0; i < nk * 4; ++i) RoundKey[i] = Key[i];
   02CF 01 00 00      [10]  630 	ld	bc, #0x0000
   02D2                     631 00106$:
   02D2 79            [ 4]  632 	ld	a, c
   02D3 D6 18         [ 7]  633 	sub	a, #0x18
   02D5 78            [ 4]  634 	ld	a, b
   02D6 DE 00         [ 7]  635 	sbc	a, #0x00
   02D8 30 16         [12]  636 	jr	NC,00101$
   02DA DD 7E 04      [19]  637 	ld	a, 4 (ix)
   02DD 81            [ 4]  638 	add	a, c
   02DE 5F            [ 4]  639 	ld	e, a
   02DF DD 7E 05      [19]  640 	ld	a, 5 (ix)
   02E2 88            [ 4]  641 	adc	a, b
   02E3 57            [ 4]  642 	ld	d, a
   02E4 DD 6E 06      [19]  643 	ld	l, 6 (ix)
   02E7 DD 66 07      [19]  644 	ld	h, 7 (ix)
   02EA 09            [11]  645 	add	hl, bc
   02EB 7E            [ 7]  646 	ld	a, (hl)
   02EC 12            [ 7]  647 	ld	(de), a
   02ED 03            [ 6]  648 	inc	bc
   02EE 18 E2         [12]  649 	jr	00106$
   02F0                     650 00101$:
                            651 ;aes_192.c:64: for (i = nk; i < 4 * (nr + 1); ++i) {
   02F0 01 06 00      [10]  652 	ld	bc, #0x0006
   02F3                     653 00109$:
   02F3 79            [ 4]  654 	ld	a, c
   02F4 D6 34         [ 7]  655 	sub	a, #0x34
   02F6 78            [ 4]  656 	ld	a, b
   02F7 DE 00         [ 7]  657 	sbc	a, #0x00
   02F9 D2r4Ar05      [10]  658 	jp	NC, 00111$
                            659 ;aes_192.c:65: k = (i - 1) * 4;
   02FC 69            [ 4]  660 	ld	l, c
   02FD 60            [ 4]  661 	ld	h, b
   02FE 2B            [ 6]  662 	dec	hl
   02FF 29            [11]  663 	add	hl, hl
   0300 29            [11]  664 	add	hl, hl
   0301 DD 75 FC      [19]  665 	ld	-4 (ix), l
   0304 DD 74 FD      [19]  666 	ld	-3 (ix), h
                            667 ;aes_192.c:66: tempa[0]=RoundKey[k + 0]; tempa[1]=RoundKey[k + 1];
   0307 21 00 00      [10]  668 	ld	hl, #0
   030A 39            [11]  669 	add	hl, sp
   030B DD 75 FE      [19]  670 	ld	-2 (ix), l
   030E DD 74 FF      [19]  671 	ld	-1 (ix), h
   0311 DD 7E 04      [19]  672 	ld	a, 4 (ix)
   0314 DD 86 FC      [19]  673 	add	a, -4 (ix)
   0317 5F            [ 4]  674 	ld	e, a
   0318 DD 7E 05      [19]  675 	ld	a, 5 (ix)
   031B DD 8E FD      [19]  676 	adc	a, -3 (ix)
   031E 57            [ 4]  677 	ld	d, a
   031F 1A            [ 7]  678 	ld	a, (de)
   0320 DD 6E FE      [19]  679 	ld	l, -2 (ix)
   0323 DD 66 FF      [19]  680 	ld	h, -1 (ix)
   0326 77            [ 7]  681 	ld	(hl), a
   0327 DD 7E FE      [19]  682 	ld	a, -2 (ix)
   032A C6 01         [ 7]  683 	add	a, #0x01
   032C DD 77 F4      [19]  684 	ld	-12 (ix), a
   032F DD 7E FF      [19]  685 	ld	a, -1 (ix)
   0332 CE 00         [ 7]  686 	adc	a, #0x00
   0334 DD 77 F5      [19]  687 	ld	-11 (ix), a
   0337 DD 5E FC      [19]  688 	ld	e, -4 (ix)
   033A DD 56 FD      [19]  689 	ld	d, -3 (ix)
   033D 13            [ 6]  690 	inc	de
   033E DD 6E 04      [19]  691 	ld	l, 4 (ix)
   0341 DD 66 05      [19]  692 	ld	h, 5 (ix)
   0344 19            [11]  693 	add	hl, de
   0345 7E            [ 7]  694 	ld	a, (hl)
   0346 DD 6E F4      [19]  695 	ld	l, -12 (ix)
   0349 DD 66 F5      [19]  696 	ld	h, -11 (ix)
   034C 77            [ 7]  697 	ld	(hl), a
                            698 ;aes_192.c:67: tempa[2]=RoundKey[k + 2]; tempa[3]=RoundKey[k + 3];
   034D DD 7E FE      [19]  699 	ld	a, -2 (ix)
   0350 C6 02         [ 7]  700 	add	a, #0x02
   0352 DD 77 F6      [19]  701 	ld	-10 (ix), a
   0355 DD 7E FF      [19]  702 	ld	a, -1 (ix)
   0358 CE 00         [ 7]  703 	adc	a, #0x00
   035A DD 77 F7      [19]  704 	ld	-9 (ix), a
   035D DD 5E FC      [19]  705 	ld	e, -4 (ix)
   0360 DD 56 FD      [19]  706 	ld	d, -3 (ix)
   0363 13            [ 6]  707 	inc	de
   0364 13            [ 6]  708 	inc	de
   0365 DD 6E 04      [19]  709 	ld	l, 4 (ix)
   0368 DD 66 05      [19]  710 	ld	h, 5 (ix)
   036B 19            [11]  711 	add	hl, de
   036C 7E            [ 7]  712 	ld	a, (hl)
   036D DD 6E F6      [19]  713 	ld	l, -10 (ix)
   0370 DD 66 F7      [19]  714 	ld	h, -9 (ix)
   0373 77            [ 7]  715 	ld	(hl), a
   0374 DD 7E FE      [19]  716 	ld	a, -2 (ix)
   0377 C6 03         [ 7]  717 	add	a, #0x03
   0379 DD 77 F8      [19]  718 	ld	-8 (ix), a
   037C DD 7E FF      [19]  719 	ld	a, -1 (ix)
   037F CE 00         [ 7]  720 	adc	a, #0x00
   0381 DD 77 F9      [19]  721 	ld	-7 (ix), a
   0384 DD 5E FC      [19]  722 	ld	e, -4 (ix)
   0387 DD 56 FD      [19]  723 	ld	d, -3 (ix)
   038A 13            [ 6]  724 	inc	de
   038B 13            [ 6]  725 	inc	de
   038C 13            [ 6]  726 	inc	de
   038D DD 6E 04      [19]  727 	ld	l, 4 (ix)
   0390 DD 66 05      [19]  728 	ld	h, 5 (ix)
   0393 19            [11]  729 	add	hl, de
   0394 7E            [ 7]  730 	ld	a, (hl)
   0395 DD 6E F8      [19]  731 	ld	l, -8 (ix)
   0398 DD 66 F9      [19]  732 	ld	h, -7 (ix)
   039B 77            [ 7]  733 	ld	(hl), a
                            734 ;aes_192.c:69: if (i % nk == 0) {
   039C C5            [11]  735 	push	bc
   039D 21 06 00      [10]  736 	ld	hl, #0x0006
   03A0 E5            [11]  737 	push	hl
   03A1 C5            [11]  738 	push	bc
   03A2 CDr00r00      [17]  739 	call	__moduint
   03A5 F1            [10]  740 	pop	af
   03A6 F1            [10]  741 	pop	af
   03A7 C1            [10]  742 	pop	bc
   03A8 7C            [ 4]  743 	ld	a, h
   03A9 B5            [ 4]  744 	or	a, l
   03AA C2r5Cr04      [10]  745 	jp	NZ, 00103$
                            746 ;aes_192.c:70: k = tempa[0];
   03AD DD 6E FE      [19]  747 	ld	l, -2 (ix)
   03B0 DD 66 FF      [19]  748 	ld	h, -1 (ix)
   03B3 7E            [ 7]  749 	ld	a, (hl)
   03B4 DD 77 FA      [19]  750 	ld	-6 (ix), a
   03B7 AF            [ 4]  751 	xor	a, a
   03B8 DD 77 FB      [19]  752 	ld	-5 (ix), a
                            753 ;aes_192.c:71: tempa[0] = tempa[1]; tempa[1] = tempa[2]; tempa[2] = tempa[3]; tempa[3] = k;
   03BB DD 6E F4      [19]  754 	ld	l, -12 (ix)
   03BE DD 66 F5      [19]  755 	ld	h, -11 (ix)
   03C1 7E            [ 7]  756 	ld	a, (hl)
   03C2 DD 6E FE      [19]  757 	ld	l, -2 (ix)
   03C5 DD 66 FF      [19]  758 	ld	h, -1 (ix)
   03C8 77            [ 7]  759 	ld	(hl), a
   03C9 DD 6E F6      [19]  760 	ld	l, -10 (ix)
   03CC DD 66 F7      [19]  761 	ld	h, -9 (ix)
   03CF F5            [11]  762 	push	af
   03D0 7E            [ 7]  763 	ld	a, (hl)
   03D1 DD 77 FC      [19]  764 	ld	-4 (ix), a
   03D4 F1            [10]  765 	pop	af
   03D5 DD 6E F4      [19]  766 	ld	l, -12 (ix)
   03D8 DD 66 F5      [19]  767 	ld	h, -11 (ix)
   03DB F5            [11]  768 	push	af
   03DC DD 7E FC      [19]  769 	ld	a, -4 (ix)
   03DF 77            [ 7]  770 	ld	(hl), a
   03E0 F1            [10]  771 	pop	af
   03E1 DD 6E F8      [19]  772 	ld	l, -8 (ix)
   03E4 DD 66 F9      [19]  773 	ld	h, -7 (ix)
   03E7 56            [ 7]  774 	ld	d, (hl)
   03E8 DD 6E F6      [19]  775 	ld	l, -10 (ix)
   03EB DD 66 F7      [19]  776 	ld	h, -9 (ix)
   03EE 72            [ 7]  777 	ld	(hl), d
   03EF DD 5E FA      [19]  778 	ld	e, -6 (ix)
   03F2 DD 6E F8      [19]  779 	ld	l, -8 (ix)
   03F5 DD 66 F9      [19]  780 	ld	h, -7 (ix)
   03F8 73            [ 7]  781 	ld	(hl), e
                            782 ;aes_192.c:72: tempa[0] = sbox[tempa[0]]; tempa[1] = sbox[tempa[1]];
   03F9 C6r51         [ 7]  783 	add	a, #<(_sbox)
   03FB 6F            [ 4]  784 	ld	l, a
   03FC 3E 00         [ 7]  785 	ld	a, #0x00
   03FE CEs00         [ 7]  786 	adc	a, #>(_sbox)
   0400 67            [ 4]  787 	ld	h, a
   0401 7E            [ 7]  788 	ld	a, (hl)
   0402 DD 77 FD      [19]  789 	ld	-3 (ix), a
   0405 DD 6E FE      [19]  790 	ld	l, -2 (ix)
   0408 DD 66 FF      [19]  791 	ld	h, -1 (ix)
   040B DD 7E FD      [19]  792 	ld	a, -3 (ix)
   040E 77            [ 7]  793 	ld	(hl), a
   040F DD 7E FC      [19]  794 	ld	a, -4 (ix)
   0412 C6r51         [ 7]  795 	add	a, #<(_sbox)
   0414 6F            [ 4]  796 	ld	l, a
   0415 3E 00         [ 7]  797 	ld	a, #0x00
   0417 CEs00         [ 7]  798 	adc	a, #>(_sbox)
   0419 67            [ 4]  799 	ld	h, a
   041A 7E            [ 7]  800 	ld	a, (hl)
   041B DD 6E F4      [19]  801 	ld	l, -12 (ix)
   041E DD 66 F5      [19]  802 	ld	h, -11 (ix)
   0421 77            [ 7]  803 	ld	(hl), a
                            804 ;aes_192.c:73: tempa[2] = sbox[tempa[2]]; tempa[3] = sbox[tempa[3]];
   0422 7A            [ 4]  805 	ld	a, d
   0423 C6r51         [ 7]  806 	add	a, #<(_sbox)
   0425 6F            [ 4]  807 	ld	l, a
   0426 3E 00         [ 7]  808 	ld	a, #0x00
   0428 CEs00         [ 7]  809 	adc	a, #>(_sbox)
   042A 67            [ 4]  810 	ld	h, a
   042B 7E            [ 7]  811 	ld	a, (hl)
   042C DD 6E F6      [19]  812 	ld	l, -10 (ix)
   042F DD 66 F7      [19]  813 	ld	h, -9 (ix)
   0432 77            [ 7]  814 	ld	(hl), a
   0433 21r51r00      [10]  815 	ld	hl, #_sbox
   0436 16 00         [ 7]  816 	ld	d, #0x00
   0438 19            [11]  817 	add	hl, de
   0439 7E            [ 7]  818 	ld	a, (hl)
   043A DD 6E F8      [19]  819 	ld	l, -8 (ix)
   043D DD 66 F9      [19]  820 	ld	h, -7 (ix)
   0440 77            [ 7]  821 	ld	(hl), a
                            822 ;aes_192.c:74: tempa[0] = tempa[0] ^ Rcon[i/nk];
   0441 C5            [11]  823 	push	bc
   0442 21 06 00      [10]  824 	ld	hl, #0x0006
   0445 E5            [11]  825 	push	hl
   0446 C5            [11]  826 	push	bc
   0447 CDr00r00      [17]  827 	call	__divuint
   044A F1            [10]  828 	pop	af
   044B F1            [10]  829 	pop	af
   044C C1            [10]  830 	pop	bc
   044D 11r51r01      [10]  831 	ld	de, #_Rcon
   0450 19            [11]  832 	add	hl, de
   0451 7E            [ 7]  833 	ld	a, (hl)
   0452 DD AE FD      [19]  834 	xor	a, -3 (ix)
   0455 DD 6E FE      [19]  835 	ld	l, -2 (ix)
   0458 DD 66 FF      [19]  836 	ld	h, -1 (ix)
   045B 77            [ 7]  837 	ld	(hl), a
   045C                     838 00103$:
                            839 ;aes_192.c:77: j = i * 4; k = (i - nk) * 4;
   045C DD 71 FA      [19]  840 	ld	-6 (ix), c
   045F DD 70 FB      [19]  841 	ld	-5 (ix), b
   0462 3E 03         [ 7]  842 	ld	a, #0x02+1
   0464 18 08         [12]  843 	jr	00141$
   0466                     844 00140$:
   0466 DD CB FA 26   [23]  845 	sla	-6 (ix)
   046A DD CB FB 16   [23]  846 	rl	-5 (ix)
   046E                     847 00141$:
   046E 3D            [ 4]  848 	dec	a
   046F 20 F5         [12]  849 	jr	NZ,00140$
   0471 79            [ 4]  850 	ld	a, c
   0472 C6 FA         [ 7]  851 	add	a, #0xfa
   0474 6F            [ 4]  852 	ld	l, a
   0475 78            [ 4]  853 	ld	a, b
   0476 CE FF         [ 7]  854 	adc	a, #0xff
   0478 67            [ 4]  855 	ld	h, a
   0479 29            [11]  856 	add	hl, hl
   047A 29            [11]  857 	add	hl, hl
   047B DD 75 FC      [19]  858 	ld	-4 (ix), l
   047E DD 74 FD      [19]  859 	ld	-3 (ix), h
                            860 ;aes_192.c:78: RoundKey[j + 0] = RoundKey[k + 0] ^ tempa[0];
   0481 DD 7E 04      [19]  861 	ld	a, 4 (ix)
   0484 DD 86 FA      [19]  862 	add	a, -6 (ix)
   0487 5F            [ 4]  863 	ld	e, a
   0488 DD 7E 05      [19]  864 	ld	a, 5 (ix)
   048B DD 8E FB      [19]  865 	adc	a, -5 (ix)
   048E 57            [ 4]  866 	ld	d, a
   048F DD 7E 04      [19]  867 	ld	a, 4 (ix)
   0492 DD 86 FC      [19]  868 	add	a, -4 (ix)
   0495 6F            [ 4]  869 	ld	l, a
   0496 DD 7E 05      [19]  870 	ld	a, 5 (ix)
   0499 DD 8E FD      [19]  871 	adc	a, -3 (ix)
   049C 67            [ 4]  872 	ld	h, a
   049D 7E            [ 7]  873 	ld	a, (hl)
   049E DD 6E FE      [19]  874 	ld	l, -2 (ix)
   04A1 DD 66 FF      [19]  875 	ld	h, -1 (ix)
   04A4 6E            [ 7]  876 	ld	l, (hl)
   04A5 AD            [ 4]  877 	xor	a, l
   04A6 12            [ 7]  878 	ld	(de), a
                            879 ;aes_192.c:79: RoundKey[j + 1] = RoundKey[k + 1] ^ tempa[1];
   04A7 DD 5E FA      [19]  880 	ld	e, -6 (ix)
   04AA DD 56 FB      [19]  881 	ld	d, -5 (ix)
   04AD 13            [ 6]  882 	inc	de
   04AE 7B            [ 4]  883 	ld	a, e
   04AF DD 86 04      [19]  884 	add	a, 4 (ix)
   04B2 DD 77 FE      [19]  885 	ld	-2 (ix), a
   04B5 7A            [ 4]  886 	ld	a, d
   04B6 DD 8E 05      [19]  887 	adc	a, 5 (ix)
   04B9 DD 77 FF      [19]  888 	ld	-1 (ix), a
   04BC DD 5E FC      [19]  889 	ld	e, -4 (ix)
   04BF DD 56 FD      [19]  890 	ld	d, -3 (ix)
   04C2 13            [ 6]  891 	inc	de
   04C3 DD 6E 04      [19]  892 	ld	l, 4 (ix)
   04C6 DD 66 05      [19]  893 	ld	h, 5 (ix)
   04C9 19            [11]  894 	add	hl, de
   04CA 7E            [ 7]  895 	ld	a, (hl)
   04CB DD 6E F4      [19]  896 	ld	l, -12 (ix)
   04CE DD 66 F5      [19]  897 	ld	h, -11 (ix)
   04D1 5E            [ 7]  898 	ld	e, (hl)
   04D2 AB            [ 4]  899 	xor	a, e
   04D3 DD 6E FE      [19]  900 	ld	l, -2 (ix)
   04D6 DD 66 FF      [19]  901 	ld	h, -1 (ix)
   04D9 77            [ 7]  902 	ld	(hl), a
                            903 ;aes_192.c:80: RoundKey[j + 2] = RoundKey[k + 2] ^ tempa[2];
   04DA DD 5E FA      [19]  904 	ld	e, -6 (ix)
   04DD DD 56 FB      [19]  905 	ld	d, -5 (ix)
   04E0 13            [ 6]  906 	inc	de
   04E1 13            [ 6]  907 	inc	de
   04E2 7B            [ 4]  908 	ld	a, e
   04E3 DD 86 04      [19]  909 	add	a, 4 (ix)
   04E6 DD 77 FE      [19]  910 	ld	-2 (ix), a
   04E9 7A            [ 4]  911 	ld	a, d
   04EA DD 8E 05      [19]  912 	adc	a, 5 (ix)
   04ED DD 77 FF      [19]  913 	ld	-1 (ix), a
   04F0 DD 5E FC      [19]  914 	ld	e, -4 (ix)
   04F3 DD 56 FD      [19]  915 	ld	d, -3 (ix)
   04F6 13            [ 6]  916 	inc	de
   04F7 13            [ 6]  917 	inc	de
   04F8 DD 6E 04      [19]  918 	ld	l, 4 (ix)
   04FB DD 66 05      [19]  919 	ld	h, 5 (ix)
   04FE 19            [11]  920 	add	hl, de
   04FF 7E            [ 7]  921 	ld	a, (hl)
   0500 DD 6E F6      [19]  922 	ld	l, -10 (ix)
   0503 DD 66 F7      [19]  923 	ld	h, -9 (ix)
   0506 5E            [ 7]  924 	ld	e, (hl)
   0507 AB            [ 4]  925 	xor	a, e
   0508 DD 6E FE      [19]  926 	ld	l, -2 (ix)
   050B DD 66 FF      [19]  927 	ld	h, -1 (ix)
   050E 77            [ 7]  928 	ld	(hl), a
                            929 ;aes_192.c:81: RoundKey[j + 3] = RoundKey[k + 3] ^ tempa[3];
   050F DD 5E FA      [19]  930 	ld	e, -6 (ix)
   0512 DD 56 FB      [19]  931 	ld	d, -5 (ix)
   0515 13            [ 6]  932 	inc	de
   0516 13            [ 6]  933 	inc	de
   0517 13            [ 6]  934 	inc	de
   0518 7B            [ 4]  935 	ld	a, e
   0519 DD 86 04      [19]  936 	add	a, 4 (ix)
   051C DD 77 FE      [19]  937 	ld	-2 (ix), a
   051F 7A            [ 4]  938 	ld	a, d
   0520 DD 8E 05      [19]  939 	adc	a, 5 (ix)
   0523 DD 77 FF      [19]  940 	ld	-1 (ix), a
   0526 DD 5E FC      [19]  941 	ld	e, -4 (ix)
   0529 DD 56 FD      [19]  942 	ld	d, -3 (ix)
   052C 13            [ 6]  943 	inc	de
   052D 13            [ 6]  944 	inc	de
   052E 13            [ 6]  945 	inc	de
   052F DD 6E 04      [19]  946 	ld	l, 4 (ix)
   0532 DD 66 05      [19]  947 	ld	h, 5 (ix)
   0535 19            [11]  948 	add	hl, de
   0536 7E            [ 7]  949 	ld	a, (hl)
   0537 DD 6E F8      [19]  950 	ld	l, -8 (ix)
   053A DD 66 F9      [19]  951 	ld	h, -7 (ix)
   053D 5E            [ 7]  952 	ld	e, (hl)
   053E AB            [ 4]  953 	xor	a, e
   053F DD 6E FE      [19]  954 	ld	l, -2 (ix)
   0542 DD 66 FF      [19]  955 	ld	h, -1 (ix)
   0545 77            [ 7]  956 	ld	(hl), a
                            957 ;aes_192.c:64: for (i = nk; i < 4 * (nr + 1); ++i) {
   0546 03            [ 6]  958 	inc	bc
   0547 C3rF3r02      [10]  959 	jp	00109$
   054A                     960 00111$:
                            961 ;aes_192.c:83: }
   054A DD F9         [10]  962 	ld	sp, ix
   054C DD E1         [14]  963 	pop	ix
   054E C9            [10]  964 	ret
                            965 ;aes_192.c:86: void AES192_Encrypt(uint8_t* buffer, const uint8_t* key) {
                            966 ;	---------------------------------
                            967 ; Function AES192_Encrypt
                            968 ; ---------------------------------
   054F                     969 _AES192_Encrypt::
   054F CDr00r00      [17]  970 	call	___sdcc_enter_ix
   0552 21 2D FF      [10]  971 	ld	hl, #-211
   0555 39            [11]  972 	add	hl, sp
   0556 F9            [ 6]  973 	ld	sp, hl
                            974 ;aes_192.c:88: KeyExpansion(RoundKey, key);
   0557 21 00 00      [10]  975 	ld	hl, #0
   055A 39            [11]  976 	add	hl, sp
   055B EB            [ 4]  977 	ex	de, hl
   055C 4B            [ 4]  978 	ld	c, e
   055D 42            [ 4]  979 	ld	b, d
   055E D5            [11]  980 	push	de
   055F DD 6E 06      [19]  981 	ld	l, 6 (ix)
   0562 DD 66 07      [19]  982 	ld	h, 7 (ix)
   0565 E5            [11]  983 	push	hl
   0566 C5            [11]  984 	push	bc
   0567 CDrC7r02      [17]  985 	call	_KeyExpansion
   056A F1            [10]  986 	pop	af
   056B F1            [10]  987 	pop	af
   056C D1            [10]  988 	pop	de
                            989 ;aes_192.c:90: AddRoundKey(0, buffer, RoundKey); 
   056D 4B            [ 4]  990 	ld	c, e
   056E 42            [ 4]  991 	ld	b, d
   056F D5            [11]  992 	push	de
   0570 C5            [11]  993 	push	bc
   0571 DD 6E 04      [19]  994 	ld	l, 4 (ix)
   0574 DD 66 05      [19]  995 	ld	h, 5 (ix)
   0577 E5            [11]  996 	push	hl
   0578 AF            [ 4]  997 	xor	a, a
   0579 F5            [11]  998 	push	af
   057A 33            [ 6]  999 	inc	sp
   057B CDr05r00      [17] 1000 	call	_AddRoundKey
   057E F1            [10] 1001 	pop	af
   057F F1            [10] 1002 	pop	af
   0580 33            [ 6] 1003 	inc	sp
   0581 D1            [10] 1004 	pop	de
                           1005 ;aes_192.c:93: for (int round = 1; round < 12; ++round) {
   0582 DD 73 FD      [19] 1006 	ld	-3 (ix), e
   0585 DD 72 FE      [19] 1007 	ld	-2 (ix), d
   0588 01 01 00      [10] 1008 	ld	bc, #0x0001
   058B                    1009 00103$:
   058B 79            [ 4] 1010 	ld	a, c
   058C D6 0C         [ 7] 1011 	sub	a, #0x0c
   058E 78            [ 4] 1012 	ld	a, b
   058F 17            [ 4] 1013 	rla
   0590 3F            [ 4] 1014 	ccf
   0591 1F            [ 4] 1015 	rra
   0592 DE 80         [ 7] 1016 	sbc	a, #0x80
   0594 30 3D         [12] 1017 	jr	NC,00101$
                           1018 ;aes_192.c:94: SubBytes(buffer);
   0596 C5            [11] 1019 	push	bc
   0597 D5            [11] 1020 	push	de
   0598 DD 6E 04      [19] 1021 	ld	l, 4 (ix)
   059B DD 66 05      [19] 1022 	ld	h, 5 (ix)
   059E E5            [11] 1023 	push	hl
   059F CDr5Cr01      [17] 1024 	call	_SubBytes
   05A2 F1            [10] 1025 	pop	af
   05A3 DD 6E 04      [19] 1026 	ld	l, 4 (ix)
   05A6 DD 66 05      [19] 1027 	ld	h, 5 (ix)
   05A9 E5            [11] 1028 	push	hl
   05AA CDr88r01      [17] 1029 	call	_ShiftRows
   05AD F1            [10] 1030 	pop	af
   05AE D1            [10] 1031 	pop	de
   05AF C1            [10] 1032 	pop	bc
                           1033 ;aes_192.c:96: AddRoundKey(round, buffer, RoundKey);
   05B0 DD 6E FD      [19] 1034 	ld	l, -3 (ix)
   05B3 DD 66 FE      [19] 1035 	ld	h, -2 (ix)
   05B6 DD 71 FF      [19] 1036 	ld	-1 (ix), c
   05B9 C5            [11] 1037 	push	bc
   05BA D5            [11] 1038 	push	de
   05BB E5            [11] 1039 	push	hl
   05BC DD 6E 04      [19] 1040 	ld	l, 4 (ix)
   05BF DD 66 05      [19] 1041 	ld	h, 5 (ix)
   05C2 E5            [11] 1042 	push	hl
   05C3 DD 7E FF      [19] 1043 	ld	a, -1 (ix)
   05C6 F5            [11] 1044 	push	af
   05C7 33            [ 6] 1045 	inc	sp
   05C8 CDr05r00      [17] 1046 	call	_AddRoundKey
   05CB F1            [10] 1047 	pop	af
   05CC F1            [10] 1048 	pop	af
   05CD 33            [ 6] 1049 	inc	sp
   05CE D1            [10] 1050 	pop	de
   05CF C1            [10] 1051 	pop	bc
                           1052 ;aes_192.c:93: for (int round = 1; round < 12; ++round) {
   05D0 03            [ 6] 1053 	inc	bc
   05D1 18 B8         [12] 1054 	jr	00103$
   05D3                    1055 00101$:
                           1056 ;aes_192.c:100: SubBytes(buffer);
   05D3 D5            [11] 1057 	push	de
   05D4 DD 6E 04      [19] 1058 	ld	l, 4 (ix)
   05D7 DD 66 05      [19] 1059 	ld	h, 5 (ix)
   05DA E5            [11] 1060 	push	hl
   05DB CDr5Cr01      [17] 1061 	call	_SubBytes
   05DE F1            [10] 1062 	pop	af
   05DF DD 6E 04      [19] 1063 	ld	l, 4 (ix)
   05E2 DD 66 05      [19] 1064 	ld	h, 5 (ix)
   05E5 E5            [11] 1065 	push	hl
   05E6 CDr88r01      [17] 1066 	call	_ShiftRows
   05E9 F1            [10] 1067 	pop	af
   05EA DD 6E 04      [19] 1068 	ld	l, 4 (ix)
   05ED DD 66 05      [19] 1069 	ld	h, 5 (ix)
   05F0 E5            [11] 1070 	push	hl
   05F1 3E 0C         [ 7] 1071 	ld	a, #0x0c
   05F3 F5            [11] 1072 	push	af
   05F4 33            [ 6] 1073 	inc	sp
   05F5 CDr05r00      [17] 1074 	call	_AddRoundKey
                           1075 ;aes_192.c:103: }
   05F8 DD F9         [10] 1076 	ld	sp,ix
   05FA DD E1         [14] 1077 	pop	ix
   05FC C9            [10] 1078 	ret
                           1079 ;aes_192.c:105: int main() {
                           1080 ;	---------------------------------
                           1081 ; Function main
                           1082 ; ---------------------------------
   05FD                    1083 _main::
   05FD CDr00r00      [17] 1084 	call	___sdcc_enter_ix
   0600 21 D8 FF      [10] 1085 	ld	hl, #-40
   0603 39            [11] 1086 	add	hl, sp
   0604 F9            [ 6] 1087 	ld	sp, hl
                           1088 ;aes_192.c:106: uint8_t data[16] = { 0x32, 0x43, 0xf6, 0xa8, 0x88, 0x5a, 0x30, 0x8d, 0x31, 0x31, 0x98, 0xa2, 0xe0, 0x37, 0x07, 0x34 };
   0605 21 00 00      [10] 1089 	ld	hl, #0
   0608 39            [11] 1090 	add	hl, sp
   0609 4D            [ 4] 1091 	ld	c, l
   060A 44            [ 4] 1092 	ld	b, h
   060B 3E 32         [ 7] 1093 	ld	a, #0x32
   060D 02            [ 7] 1094 	ld	(bc), a
   060E 69            [ 4] 1095 	ld	l, c
   060F 60            [ 4] 1096 	ld	h, b
   0610 23            [ 6] 1097 	inc	hl
   0611 36 43         [10] 1098 	ld	(hl), #0x43
   0613 69            [ 4] 1099 	ld	l, c
   0614 60            [ 4] 1100 	ld	h, b
   0615 23            [ 6] 1101 	inc	hl
   0616 23            [ 6] 1102 	inc	hl
   0617 36 F6         [10] 1103 	ld	(hl), #0xf6
   0619 69            [ 4] 1104 	ld	l, c
   061A 60            [ 4] 1105 	ld	h, b
   061B 23            [ 6] 1106 	inc	hl
   061C 23            [ 6] 1107 	inc	hl
   061D 23            [ 6] 1108 	inc	hl
   061E 36 A8         [10] 1109 	ld	(hl), #0xa8
   0620 21 04 00      [10] 1110 	ld	hl, #0x0004
   0623 09            [11] 1111 	add	hl, bc
   0624 36 88         [10] 1112 	ld	(hl), #0x88
   0626 21 05 00      [10] 1113 	ld	hl, #0x0005
   0629 09            [11] 1114 	add	hl, bc
   062A 36 5A         [10] 1115 	ld	(hl), #0x5a
   062C 21 06 00      [10] 1116 	ld	hl, #0x0006
   062F 09            [11] 1117 	add	hl, bc
   0630 36 30         [10] 1118 	ld	(hl), #0x30
   0632 21 07 00      [10] 1119 	ld	hl, #0x0007
   0635 09            [11] 1120 	add	hl, bc
   0636 36 8D         [10] 1121 	ld	(hl), #0x8d
   0638 21 08 00      [10] 1122 	ld	hl, #0x0008
   063B 09            [11] 1123 	add	hl, bc
   063C 36 31         [10] 1124 	ld	(hl), #0x31
   063E 21 09 00      [10] 1125 	ld	hl, #0x0009
   0641 09            [11] 1126 	add	hl, bc
   0642 36 31         [10] 1127 	ld	(hl), #0x31
   0644 21 0A 00      [10] 1128 	ld	hl, #0x000a
   0647 09            [11] 1129 	add	hl, bc
   0648 36 98         [10] 1130 	ld	(hl), #0x98
   064A 21 0B 00      [10] 1131 	ld	hl, #0x000b
   064D 09            [11] 1132 	add	hl, bc
   064E 36 A2         [10] 1133 	ld	(hl), #0xa2
   0650 21 0C 00      [10] 1134 	ld	hl, #0x000c
   0653 09            [11] 1135 	add	hl, bc
   0654 36 E0         [10] 1136 	ld	(hl), #0xe0
   0656 21 0D 00      [10] 1137 	ld	hl, #0x000d
   0659 09            [11] 1138 	add	hl, bc
   065A 36 37         [10] 1139 	ld	(hl), #0x37
   065C 21 0E 00      [10] 1140 	ld	hl, #0x000e
   065F 09            [11] 1141 	add	hl, bc
   0660 36 07         [10] 1142 	ld	(hl), #0x07
   0662 21 0F 00      [10] 1143 	ld	hl, #0x000f
   0665 09            [11] 1144 	add	hl, bc
   0666 36 34         [10] 1145 	ld	(hl), #0x34
                           1146 ;aes_192.c:107: uint8_t key[24] = { 
   0668 21 10 00      [10] 1147 	ld	hl, #16
   066B 39            [11] 1148 	add	hl, sp
   066C EB            [ 4] 1149 	ex	de, hl
   066D 3E 8E         [ 7] 1150 	ld	a, #0x8e
   066F 12            [ 7] 1151 	ld	(de), a
   0670 6B            [ 4] 1152 	ld	l, e
   0671 62            [ 4] 1153 	ld	h, d
   0672 23            [ 6] 1154 	inc	hl
   0673 36 73         [10] 1155 	ld	(hl), #0x73
   0675 6B            [ 4] 1156 	ld	l, e
   0676 62            [ 4] 1157 	ld	h, d
   0677 23            [ 6] 1158 	inc	hl
   0678 23            [ 6] 1159 	inc	hl
   0679 36 B0         [10] 1160 	ld	(hl), #0xb0
   067B 6B            [ 4] 1161 	ld	l, e
   067C 62            [ 4] 1162 	ld	h, d
   067D 23            [ 6] 1163 	inc	hl
   067E 23            [ 6] 1164 	inc	hl
   067F 23            [ 6] 1165 	inc	hl
   0680 36 F7         [10] 1166 	ld	(hl), #0xf7
   0682 21 04 00      [10] 1167 	ld	hl, #0x0004
   0685 19            [11] 1168 	add	hl, de
   0686 36 DA         [10] 1169 	ld	(hl), #0xda
   0688 21 05 00      [10] 1170 	ld	hl, #0x0005
   068B 19            [11] 1171 	add	hl, de
   068C 36 0E         [10] 1172 	ld	(hl), #0x0e
   068E 21 06 00      [10] 1173 	ld	hl, #0x0006
   0691 19            [11] 1174 	add	hl, de
   0692 36 64         [10] 1175 	ld	(hl), #0x64
   0694 21 07 00      [10] 1176 	ld	hl, #0x0007
   0697 19            [11] 1177 	add	hl, de
   0698 36 52         [10] 1178 	ld	(hl), #0x52
   069A 21 08 00      [10] 1179 	ld	hl, #0x0008
   069D 19            [11] 1180 	add	hl, de
   069E 36 C8         [10] 1181 	ld	(hl), #0xc8
   06A0 21 09 00      [10] 1182 	ld	hl, #0x0009
   06A3 19            [11] 1183 	add	hl, de
   06A4 36 10         [10] 1184 	ld	(hl), #0x10
   06A6 21 0A 00      [10] 1185 	ld	hl, #0x000a
   06A9 19            [11] 1186 	add	hl, de
   06AA 36 F3         [10] 1187 	ld	(hl), #0xf3
   06AC 21 0B 00      [10] 1188 	ld	hl, #0x000b
   06AF 19            [11] 1189 	add	hl, de
   06B0 36 2B         [10] 1190 	ld	(hl), #0x2b
   06B2 21 0C 00      [10] 1191 	ld	hl, #0x000c
   06B5 19            [11] 1192 	add	hl, de
   06B6 36 80         [10] 1193 	ld	(hl), #0x80
   06B8 21 0D 00      [10] 1194 	ld	hl, #0x000d
   06BB 19            [11] 1195 	add	hl, de
   06BC 36 90         [10] 1196 	ld	(hl), #0x90
   06BE 21 0E 00      [10] 1197 	ld	hl, #0x000e
   06C1 19            [11] 1198 	add	hl, de
   06C2 36 79         [10] 1199 	ld	(hl), #0x79
   06C4 21 0F 00      [10] 1200 	ld	hl, #0x000f
   06C7 19            [11] 1201 	add	hl, de
   06C8 36 E5         [10] 1202 	ld	(hl), #0xe5
   06CA 21 10 00      [10] 1203 	ld	hl, #0x0010
   06CD 19            [11] 1204 	add	hl, de
   06CE 36 62         [10] 1205 	ld	(hl), #0x62
   06D0 21 11 00      [10] 1206 	ld	hl, #0x0011
   06D3 19            [11] 1207 	add	hl, de
   06D4 36 F8         [10] 1208 	ld	(hl), #0xf8
   06D6 21 12 00      [10] 1209 	ld	hl, #0x0012
   06D9 19            [11] 1210 	add	hl, de
   06DA 36 EA         [10] 1211 	ld	(hl), #0xea
   06DC 21 13 00      [10] 1212 	ld	hl, #0x0013
   06DF 19            [11] 1213 	add	hl, de
   06E0 36 D2         [10] 1214 	ld	(hl), #0xd2
   06E2 21 14 00      [10] 1215 	ld	hl, #0x0014
   06E5 19            [11] 1216 	add	hl, de
   06E6 36 52         [10] 1217 	ld	(hl), #0x52
   06E8 21 15 00      [10] 1218 	ld	hl, #0x0015
   06EB 19            [11] 1219 	add	hl, de
   06EC 36 2C         [10] 1220 	ld	(hl), #0x2c
   06EE 21 16 00      [10] 1221 	ld	hl, #0x0016
   06F1 19            [11] 1222 	add	hl, de
   06F2 36 6B         [10] 1223 	ld	(hl), #0x6b
   06F4 21 17 00      [10] 1224 	ld	hl, #0x0017
   06F7 19            [11] 1225 	add	hl, de
   06F8 36 7B         [10] 1226 	ld	(hl), #0x7b
                           1227 ;aes_192.c:112: printf("--- Running AES-192 ---\n");
   06FA C5            [11] 1228 	push	bc
   06FB D5            [11] 1229 	push	de
   06FC 21r4Dr07      [10] 1230 	ld	hl, #___str_1
   06FF E5            [11] 1231 	push	hl
   0700 CDr00r00      [17] 1232 	call	_puts
   0703 F1            [10] 1233 	pop	af
   0704 D1            [10] 1234 	pop	de
   0705 C1            [10] 1235 	pop	bc
                           1236 ;aes_192.c:113: AES192_Encrypt(data, key);
   0706 69            [ 4] 1237 	ld	l, c
   0707 60            [ 4] 1238 	ld	h, b
   0708 C5            [11] 1239 	push	bc
   0709 D5            [11] 1240 	push	de
   070A E5            [11] 1241 	push	hl
   070B CDr4Fr05      [17] 1242 	call	_AES192_Encrypt
   070E F1            [10] 1243 	pop	af
   070F 21r65r07      [10] 1244 	ld	hl, #___str_2
   0712 E3            [19] 1245 	ex	(sp),hl
   0713 CDr00r00      [17] 1246 	call	_printf
   0716 F1            [10] 1247 	pop	af
   0717 C1            [10] 1248 	pop	bc
                           1249 ;aes_192.c:116: for(int i=0; i<16; i++) printf("%02x ", data[i]);
   0718 11 00 00      [10] 1250 	ld	de, #0x0000
   071B                    1251 00103$:
   071B 7B            [ 4] 1252 	ld	a, e
   071C D6 10         [ 7] 1253 	sub	a, #0x10
   071E 7A            [ 4] 1254 	ld	a, d
   071F 17            [ 4] 1255 	rla
   0720 3F            [ 4] 1256 	ccf
   0721 1F            [ 4] 1257 	rra
   0722 DE 80         [ 7] 1258 	sbc	a, #0x80
   0724 30 17         [12] 1259 	jr	NC,00101$
   0726 69            [ 4] 1260 	ld	l, c
   0727 60            [ 4] 1261 	ld	h, b
   0728 19            [11] 1262 	add	hl, de
   0729 6E            [ 7] 1263 	ld	l, (hl)
   072A 26 00         [ 7] 1264 	ld	h, #0x00
   072C C5            [11] 1265 	push	bc
   072D D5            [11] 1266 	push	de
   072E E5            [11] 1267 	push	hl
   072F 21r71r07      [10] 1268 	ld	hl, #___str_3
   0732 E5            [11] 1269 	push	hl
   0733 CDr00r00      [17] 1270 	call	_printf
   0736 F1            [10] 1271 	pop	af
   0737 F1            [10] 1272 	pop	af
   0738 D1            [10] 1273 	pop	de
   0739 C1            [10] 1274 	pop	bc
   073A 13            [ 6] 1275 	inc	de
   073B 18 DE         [12] 1276 	jr	00103$
   073D                    1277 00101$:
                           1278 ;aes_192.c:117: printf("\n");
   073D 21r77r07      [10] 1279 	ld	hl, #___str_5
   0740 E5            [11] 1280 	push	hl
   0741 CDr00r00      [17] 1281 	call	_puts
   0744 F1            [10] 1282 	pop	af
                           1283 ;aes_192.c:119: return 0;
   0745 21 00 00      [10] 1284 	ld	hl, #0x0000
                           1285 ;aes_192.c:120: }
   0748 DD F9         [10] 1286 	ld	sp, ix
   074A DD E1         [14] 1287 	pop	ix
   074C C9            [10] 1288 	ret
   074D                    1289 ___str_1:
   074D 2D 2D 2D 20 52 75  1290 	.ascii "--- Running AES-192 ---"
        6E 6E 69 6E 67 20
        41 45 53 2D 31 39
        32 20 2D 2D 2D
   0764 00                 1291 	.db 0x00
   0765                    1292 ___str_2:
   0765 45 6E 63 72 79 70  1293 	.ascii "Encrypted: "
        74 65 64 3A 20
   0770 00                 1294 	.db 0x00
   0771                    1295 ___str_3:
   0771 25 30 32 78 20     1296 	.ascii "%02x "
   0776 00                 1297 	.db 0x00
   0777                    1298 ___str_5:
   0777 00                 1299 	.db 0x00
                           1300 	.area _CODE
                           1301 	.area _INITIALIZER
                           1302 	.area _CABS (ABS)
