                              1 ;--------------------------------------------------------
                              2 ; File Created by SDCC : free open source ANSI-C Compiler
                              3 ; Version 4.0.0 #11528 (Linux)
                              4 ;--------------------------------------------------------
                              5 	.module aes_128
                              6 	.optsdcc -mz80
                              7 	
                              8 ;--------------------------------------------------------
                              9 ; Public variables in this module
                             10 ;--------------------------------------------------------
                             11 	.globl _main
                             12 	.globl _AES_Encrypt
                             13 	.globl _ShiftRows
                             14 	.globl _SubBytes
                             15 	.globl _AddRoundKey
                             16 	.globl _KeyExpansion
                             17 	.globl _puts
                             18 	.globl _printf
                             19 	.globl _putchar
                             20 ;--------------------------------------------------------
                             21 ; special function registers
                             22 ;--------------------------------------------------------
                             23 ;--------------------------------------------------------
                             24 ; ram data
                             25 ;--------------------------------------------------------
                             26 	.area _DATA
                             27 ;--------------------------------------------------------
                             28 ; ram data
                             29 ;--------------------------------------------------------
                             30 	.area _INITIALIZED
                             31 ;--------------------------------------------------------
                             32 ; absolute external ram data
                             33 ;--------------------------------------------------------
                             34 	.area _DABS (ABS)
                             35 ;--------------------------------------------------------
                             36 ; global & static initialisations
                             37 ;--------------------------------------------------------
                             38 	.area _HOME
                             39 	.area _GSINIT
                             40 	.area _GSFINAL
                             41 	.area _GSINIT
                             42 ;--------------------------------------------------------
                             43 ; Home
                             44 ;--------------------------------------------------------
                             45 	.area _HOME
                             46 	.area _HOME
                             47 ;--------------------------------------------------------
                             48 ; code
                             49 ;--------------------------------------------------------
                             50 	.area _CODE
                             51 ;aes_128.c:6: int putchar(int c) {
                             52 ;	---------------------------------
                             53 ; Function putchar
                             54 ; ---------------------------------
   0000                      55 _putchar::
                             56 ;aes_128.c:7: return c;
   0000 C1            [10]   57 	pop	bc
   0001 E1            [10]   58 	pop	hl
   0002 E5            [11]   59 	push	hl
   0003 C5            [11]   60 	push	bc
                             61 ;aes_128.c:8: }
   0004 C9            [10]   62 	ret
                             63 ;aes_128.c:41: void KeyExpansion(uint8_t* RoundKey, const uint8_t* Key) {
                             64 ;	---------------------------------
                             65 ; Function KeyExpansion
                             66 ; ---------------------------------
   0005                      67 _KeyExpansion::
   0005 DD E5         [15]   68 	push	ix
   0007 DD 21 00 00   [14]   69 	ld	ix,#0
   000B DD 39         [15]   70 	add	ix,sp
   000D 21 F0 FF      [10]   71 	ld	hl, #-16
   0010 39            [11]   72 	add	hl, sp
   0011 F9            [ 6]   73 	ld	sp, hl
                             74 ;aes_128.c:45: for (i = 0; i < 4; ++i) {
   0012 AF            [ 4]   75 	xor	a, a
   0013 DD 77 FE      [19]   76 	ld	-2 (ix), a
   0016 DD 77 FF      [19]   77 	ld	-1 (ix), a
   0019                      78 00105$:
                             79 ;aes_128.c:46: RoundKey[(i * 4) + 0] = Key[(i * 4) + 0];
   0019 DD 5E FE      [19]   80 	ld	e, -2 (ix)
   001C DD 56 FF      [19]   81 	ld	d, -1 (ix)
   001F CB 23         [ 8]   82 	sla	e
   0021 CB 12         [ 8]   83 	rl	d
   0023 CB 23         [ 8]   84 	sla	e
   0025 CB 12         [ 8]   85 	rl	d
   0027 DD 7E 04      [19]   86 	ld	a, 4 (ix)
   002A 83            [ 4]   87 	add	a, e
   002B 4F            [ 4]   88 	ld	c, a
   002C DD 7E 05      [19]   89 	ld	a, 5 (ix)
   002F 8A            [ 4]   90 	adc	a, d
   0030 47            [ 4]   91 	ld	b, a
   0031 DD 6E 06      [19]   92 	ld	l, 6 (ix)
   0034 DD 66 07      [19]   93 	ld	h, 7 (ix)
   0037 19            [11]   94 	add	hl, de
   0038 7E            [ 7]   95 	ld	a, (hl)
   0039 02            [ 7]   96 	ld	(bc), a
                             97 ;aes_128.c:47: RoundKey[(i * 4) + 1] = Key[(i * 4) + 1];
   003A 4B            [ 4]   98 	ld	c, e
   003B 42            [ 4]   99 	ld	b, d
   003C 03            [ 6]  100 	inc	bc
   003D DD 7E 04      [19]  101 	ld	a, 4 (ix)
   0040 81            [ 4]  102 	add	a, c
   0041 DD 77 FC      [19]  103 	ld	-4 (ix), a
   0044 DD 7E 05      [19]  104 	ld	a, 5 (ix)
   0047 88            [ 4]  105 	adc	a, b
   0048 DD 77 FD      [19]  106 	ld	-3 (ix), a
   004B DD 6E 06      [19]  107 	ld	l, 6 (ix)
   004E DD 66 07      [19]  108 	ld	h, 7 (ix)
   0051 09            [11]  109 	add	hl, bc
   0052 7E            [ 7]  110 	ld	a, (hl)
   0053 DD 6E FC      [19]  111 	ld	l, -4 (ix)
   0056 DD 66 FD      [19]  112 	ld	h, -3 (ix)
   0059 77            [ 7]  113 	ld	(hl), a
                            114 ;aes_128.c:48: RoundKey[(i * 4) + 2] = Key[(i * 4) + 2];
   005A 4B            [ 4]  115 	ld	c, e
   005B 42            [ 4]  116 	ld	b, d
   005C 03            [ 6]  117 	inc	bc
   005D 03            [ 6]  118 	inc	bc
   005E DD 7E 04      [19]  119 	ld	a, 4 (ix)
   0061 81            [ 4]  120 	add	a, c
   0062 DD 77 FC      [19]  121 	ld	-4 (ix), a
   0065 DD 7E 05      [19]  122 	ld	a, 5 (ix)
   0068 88            [ 4]  123 	adc	a, b
   0069 DD 77 FD      [19]  124 	ld	-3 (ix), a
   006C DD 6E 06      [19]  125 	ld	l, 6 (ix)
   006F DD 66 07      [19]  126 	ld	h, 7 (ix)
   0072 09            [11]  127 	add	hl, bc
   0073 7E            [ 7]  128 	ld	a, (hl)
   0074 DD 6E FC      [19]  129 	ld	l, -4 (ix)
   0077 DD 66 FD      [19]  130 	ld	h, -3 (ix)
   007A 77            [ 7]  131 	ld	(hl), a
                            132 ;aes_128.c:49: RoundKey[(i * 4) + 3] = Key[(i * 4) + 3];
   007B 13            [ 6]  133 	inc	de
   007C 13            [ 6]  134 	inc	de
   007D 13            [ 6]  135 	inc	de
   007E DD 7E 04      [19]  136 	ld	a, 4 (ix)
   0081 83            [ 4]  137 	add	a, e
   0082 4F            [ 4]  138 	ld	c, a
   0083 DD 7E 05      [19]  139 	ld	a, 5 (ix)
   0086 8A            [ 4]  140 	adc	a, d
   0087 47            [ 4]  141 	ld	b, a
   0088 DD 6E 06      [19]  142 	ld	l, 6 (ix)
   008B DD 66 07      [19]  143 	ld	h, 7 (ix)
   008E 19            [11]  144 	add	hl, de
   008F 7E            [ 7]  145 	ld	a, (hl)
   0090 02            [ 7]  146 	ld	(bc), a
                            147 ;aes_128.c:45: for (i = 0; i < 4; ++i) {
   0091 DD 34 FE      [23]  148 	inc	-2 (ix)
   0094 20 03         [12]  149 	jr	NZ,00135$
   0096 DD 34 FF      [23]  150 	inc	-1 (ix)
   0099                     151 00135$:
   0099 DD 7E FE      [19]  152 	ld	a, -2 (ix)
   009C D6 04         [ 7]  153 	sub	a, #0x04
   009E DD 7E FF      [19]  154 	ld	a, -1 (ix)
   00A1 DE 00         [ 7]  155 	sbc	a, #0x00
   00A3 DAr19r00      [10]  156 	jp	C, 00105$
                            157 ;aes_128.c:52: for (i = 4; i < 4 * (10 + 1); ++i) {
   00A6 DD 36 FE 04   [19]  158 	ld	-2 (ix), #0x04
   00AA AF            [ 4]  159 	xor	a, a
   00AB DD 77 FF      [19]  160 	ld	-1 (ix), a
   00AE                     161 00107$:
                            162 ;aes_128.c:53: k = (i - 1) * 4;
   00AE DD 6E FE      [19]  163 	ld	l, -2 (ix)
   00B1 DD 66 FF      [19]  164 	ld	h, -1 (ix)
   00B4 2B            [ 6]  165 	dec	hl
   00B5 29            [11]  166 	add	hl, hl
   00B6 29            [11]  167 	add	hl, hl
   00B7 EB            [ 4]  168 	ex	de,hl
                            169 ;aes_128.c:54: tempa[0]=RoundKey[k + 0];
   00B8 21 00 00      [10]  170 	ld	hl, #0
   00BB 39            [11]  171 	add	hl, sp
   00BC DD 75 FC      [19]  172 	ld	-4 (ix), l
   00BF DD 74 FD      [19]  173 	ld	-3 (ix), h
   00C2 DD 6E 04      [19]  174 	ld	l, 4 (ix)
   00C5 DD 66 05      [19]  175 	ld	h, 5 (ix)
   00C8 19            [11]  176 	add	hl, de
   00C9 7E            [ 7]  177 	ld	a, (hl)
   00CA DD 6E FC      [19]  178 	ld	l, -4 (ix)
   00CD DD 66 FD      [19]  179 	ld	h, -3 (ix)
   00D0 77            [ 7]  180 	ld	(hl), a
                            181 ;aes_128.c:55: tempa[1]=RoundKey[k + 1];
   00D1 DD 7E FC      [19]  182 	ld	a, -4 (ix)
   00D4 C6 01         [ 7]  183 	add	a, #0x01
   00D6 DD 77 F4      [19]  184 	ld	-12 (ix), a
   00D9 DD 7E FD      [19]  185 	ld	a, -3 (ix)
   00DC CE 00         [ 7]  186 	adc	a, #0x00
   00DE DD 77 F5      [19]  187 	ld	-11 (ix), a
   00E1 4B            [ 4]  188 	ld	c, e
   00E2 42            [ 4]  189 	ld	b, d
   00E3 03            [ 6]  190 	inc	bc
   00E4 DD 6E 04      [19]  191 	ld	l, 4 (ix)
   00E7 DD 66 05      [19]  192 	ld	h, 5 (ix)
   00EA 09            [11]  193 	add	hl, bc
   00EB 7E            [ 7]  194 	ld	a, (hl)
   00EC DD 6E F4      [19]  195 	ld	l, -12 (ix)
   00EF DD 66 F5      [19]  196 	ld	h, -11 (ix)
   00F2 77            [ 7]  197 	ld	(hl), a
                            198 ;aes_128.c:56: tempa[2]=RoundKey[k + 2];
   00F3 DD 7E FC      [19]  199 	ld	a, -4 (ix)
   00F6 C6 02         [ 7]  200 	add	a, #0x02
   00F8 DD 77 F6      [19]  201 	ld	-10 (ix), a
   00FB DD 7E FD      [19]  202 	ld	a, -3 (ix)
   00FE CE 00         [ 7]  203 	adc	a, #0x00
   0100 DD 77 F7      [19]  204 	ld	-9 (ix), a
   0103 4B            [ 4]  205 	ld	c, e
   0104 42            [ 4]  206 	ld	b, d
   0105 03            [ 6]  207 	inc	bc
   0106 03            [ 6]  208 	inc	bc
   0107 DD 6E 04      [19]  209 	ld	l, 4 (ix)
   010A DD 66 05      [19]  210 	ld	h, 5 (ix)
   010D 09            [11]  211 	add	hl, bc
   010E 7E            [ 7]  212 	ld	a, (hl)
   010F DD 6E F6      [19]  213 	ld	l, -10 (ix)
   0112 DD 66 F7      [19]  214 	ld	h, -9 (ix)
   0115 77            [ 7]  215 	ld	(hl), a
                            216 ;aes_128.c:57: tempa[3]=RoundKey[k + 3];
   0116 DD 4E FC      [19]  217 	ld	c, -4 (ix)
   0119 DD 46 FD      [19]  218 	ld	b, -3 (ix)
   011C 03            [ 6]  219 	inc	bc
   011D 03            [ 6]  220 	inc	bc
   011E 03            [ 6]  221 	inc	bc
   011F 13            [ 6]  222 	inc	de
   0120 13            [ 6]  223 	inc	de
   0121 13            [ 6]  224 	inc	de
   0122 DD 6E 04      [19]  225 	ld	l, 4 (ix)
   0125 DD 66 05      [19]  226 	ld	h, 5 (ix)
   0128 19            [11]  227 	add	hl, de
   0129 7E            [ 7]  228 	ld	a, (hl)
   012A 02            [ 7]  229 	ld	(bc), a
                            230 ;aes_128.c:59: if (i % 4 == 0) {
   012B DD 7E FE      [19]  231 	ld	a, -2 (ix)
   012E E6 03         [ 7]  232 	and	a, #0x03
   0130 C2rD5r01      [10]  233 	jp	NZ,00103$
                            234 ;aes_128.c:61: k = tempa[0];
   0133 DD 6E FC      [19]  235 	ld	l, -4 (ix)
   0136 DD 66 FD      [19]  236 	ld	h, -3 (ix)
   0139 7E            [ 7]  237 	ld	a, (hl)
   013A DD 77 F8      [19]  238 	ld	-8 (ix), a
   013D AF            [ 4]  239 	xor	a, a
   013E DD 77 F9      [19]  240 	ld	-7 (ix), a
                            241 ;aes_128.c:62: tempa[0] = tempa[1];
   0141 DD 6E F4      [19]  242 	ld	l, -12 (ix)
   0144 DD 66 F5      [19]  243 	ld	h, -11 (ix)
   0147 7E            [ 7]  244 	ld	a, (hl)
   0148 DD 6E FC      [19]  245 	ld	l, -4 (ix)
   014B DD 66 FD      [19]  246 	ld	h, -3 (ix)
   014E 77            [ 7]  247 	ld	(hl), a
                            248 ;aes_128.c:63: tempa[1] = tempa[2];
   014F DD 6E F6      [19]  249 	ld	l, -10 (ix)
   0152 DD 66 F7      [19]  250 	ld	h, -9 (ix)
   0155 56            [ 7]  251 	ld	d, (hl)
   0156 DD 6E F4      [19]  252 	ld	l, -12 (ix)
   0159 DD 66 F5      [19]  253 	ld	h, -11 (ix)
   015C 72            [ 7]  254 	ld	(hl), d
                            255 ;aes_128.c:64: tempa[2] = tempa[3];
   015D F5            [11]  256 	push	af
   015E 0A            [ 7]  257 	ld	a, (bc)
   015F DD 77 FA      [19]  258 	ld	-6 (ix), a
   0162 F1            [10]  259 	pop	af
   0163 DD 6E F6      [19]  260 	ld	l, -10 (ix)
   0166 DD 66 F7      [19]  261 	ld	h, -9 (ix)
   0169 F5            [11]  262 	push	af
   016A DD 7E FA      [19]  263 	ld	a, -6 (ix)
   016D 77            [ 7]  264 	ld	(hl), a
   016E F1            [10]  265 	pop	af
                            266 ;aes_128.c:65: tempa[3] = k;
   016F DD 5E F8      [19]  267 	ld	e, -8 (ix)
   0172 F5            [11]  268 	push	af
   0173 7B            [ 4]  269 	ld	a, e
   0174 02            [ 7]  270 	ld	(bc), a
   0175 F1            [10]  271 	pop	af
                            272 ;aes_128.c:68: tempa[0] = sbox[tempa[0]];
   0176 C6rDD         [ 7]  273 	add	a, #<(_sbox)
   0178 6F            [ 4]  274 	ld	l, a
   0179 3E 00         [ 7]  275 	ld	a, #0x00
   017B CEs02         [ 7]  276 	adc	a, #>(_sbox)
   017D 67            [ 4]  277 	ld	h, a
   017E 7E            [ 7]  278 	ld	a, (hl)
   017F DD 77 FB      [19]  279 	ld	-5 (ix), a
   0182 DD 6E FC      [19]  280 	ld	l, -4 (ix)
   0185 DD 66 FD      [19]  281 	ld	h, -3 (ix)
   0188 DD 7E FB      [19]  282 	ld	a, -5 (ix)
   018B 77            [ 7]  283 	ld	(hl), a
                            284 ;aes_128.c:69: tempa[1] = sbox[tempa[1]];
   018C 7A            [ 4]  285 	ld	a, d
   018D C6rDD         [ 7]  286 	add	a, #<(_sbox)
   018F 6F            [ 4]  287 	ld	l, a
   0190 3E 00         [ 7]  288 	ld	a, #0x00
   0192 CEs02         [ 7]  289 	adc	a, #>(_sbox)
   0194 67            [ 4]  290 	ld	h, a
   0195 7E            [ 7]  291 	ld	a, (hl)
   0196 DD 6E F4      [19]  292 	ld	l, -12 (ix)
   0199 DD 66 F5      [19]  293 	ld	h, -11 (ix)
   019C 77            [ 7]  294 	ld	(hl), a
                            295 ;aes_128.c:70: tempa[2] = sbox[tempa[2]];
   019D DD 7E FA      [19]  296 	ld	a, -6 (ix)
   01A0 C6rDD         [ 7]  297 	add	a, #<(_sbox)
   01A2 6F            [ 4]  298 	ld	l, a
   01A3 3E 00         [ 7]  299 	ld	a, #0x00
   01A5 CEs02         [ 7]  300 	adc	a, #>(_sbox)
   01A7 67            [ 4]  301 	ld	h, a
   01A8 7E            [ 7]  302 	ld	a, (hl)
   01A9 DD 6E F6      [19]  303 	ld	l, -10 (ix)
   01AC DD 66 F7      [19]  304 	ld	h, -9 (ix)
   01AF 77            [ 7]  305 	ld	(hl), a
                            306 ;aes_128.c:71: tempa[3] = sbox[tempa[3]];
   01B0 21rDDr02      [10]  307 	ld	hl, #_sbox
   01B3 16 00         [ 7]  308 	ld	d, #0x00
   01B5 19            [11]  309 	add	hl, de
   01B6 7E            [ 7]  310 	ld	a, (hl)
   01B7 02            [ 7]  311 	ld	(bc), a
                            312 ;aes_128.c:73: tempa[0] = tempa[0] ^ Rcon[i/4];
   01B8 DD 5E FE      [19]  313 	ld	e, -2 (ix)
   01BB DD 56 FF      [19]  314 	ld	d, -1 (ix)
   01BE CB 3A         [ 8]  315 	srl	d
   01C0 CB 1B         [ 8]  316 	rr	e
   01C2 CB 3A         [ 8]  317 	srl	d
   01C4 CB 1B         [ 8]  318 	rr	e
   01C6 21rDDr03      [10]  319 	ld	hl, #_Rcon
   01C9 19            [11]  320 	add	hl, de
   01CA 7E            [ 7]  321 	ld	a, (hl)
   01CB DD AE FB      [19]  322 	xor	a, -5 (ix)
   01CE DD 6E FC      [19]  323 	ld	l, -4 (ix)
   01D1 DD 66 FD      [19]  324 	ld	h, -3 (ix)
   01D4 77            [ 7]  325 	ld	(hl), a
   01D5                     326 00103$:
                            327 ;aes_128.c:75: j = i * 4; k=(i - 4) * 4;
   01D5 DD 7E FE      [19]  328 	ld	a, -2 (ix)
   01D8 DD 77 F8      [19]  329 	ld	-8 (ix), a
   01DB DD 7E FF      [19]  330 	ld	a, -1 (ix)
   01DE DD 77 F9      [19]  331 	ld	-7 (ix), a
   01E1 3E 03         [ 7]  332 	ld	a, #0x02+1
   01E3 18 08         [12]  333 	jr	00139$
   01E5                     334 00138$:
   01E5 DD CB F8 26   [23]  335 	sla	-8 (ix)
   01E9 DD CB F9 16   [23]  336 	rl	-7 (ix)
   01ED                     337 00139$:
   01ED 3D            [ 4]  338 	dec	a
   01EE 20 F5         [12]  339 	jr	NZ,00138$
   01F0 DD 7E FE      [19]  340 	ld	a, -2 (ix)
   01F3 C6 FC         [ 7]  341 	add	a, #0xfc
   01F5 6F            [ 4]  342 	ld	l, a
   01F6 DD 7E FF      [19]  343 	ld	a, -1 (ix)
   01F9 CE FF         [ 7]  344 	adc	a, #0xff
   01FB 67            [ 4]  345 	ld	h, a
   01FC 29            [11]  346 	add	hl, hl
   01FD 29            [11]  347 	add	hl, hl
   01FE DD 75 FA      [19]  348 	ld	-6 (ix), l
   0201 DD 74 FB      [19]  349 	ld	-5 (ix), h
                            350 ;aes_128.c:76: RoundKey[j + 0] = RoundKey[k + 0] ^ tempa[0];
   0204 DD 7E 04      [19]  351 	ld	a, 4 (ix)
   0207 DD 86 F8      [19]  352 	add	a, -8 (ix)
   020A 5F            [ 4]  353 	ld	e, a
   020B DD 7E 05      [19]  354 	ld	a, 5 (ix)
   020E DD 8E F9      [19]  355 	adc	a, -7 (ix)
   0211 57            [ 4]  356 	ld	d, a
   0212 DD 7E 04      [19]  357 	ld	a, 4 (ix)
   0215 DD 86 FA      [19]  358 	add	a, -6 (ix)
   0218 6F            [ 4]  359 	ld	l, a
   0219 DD 7E 05      [19]  360 	ld	a, 5 (ix)
   021C DD 8E FB      [19]  361 	adc	a, -5 (ix)
   021F 67            [ 4]  362 	ld	h, a
   0220 7E            [ 7]  363 	ld	a, (hl)
   0221 DD 6E FC      [19]  364 	ld	l, -4 (ix)
   0224 DD 66 FD      [19]  365 	ld	h, -3 (ix)
   0227 6E            [ 7]  366 	ld	l, (hl)
   0228 AD            [ 4]  367 	xor	a, l
   0229 12            [ 7]  368 	ld	(de), a
                            369 ;aes_128.c:77: RoundKey[j + 1] = RoundKey[k + 1] ^ tempa[1];
   022A DD 5E F8      [19]  370 	ld	e, -8 (ix)
   022D DD 56 F9      [19]  371 	ld	d, -7 (ix)
   0230 13            [ 6]  372 	inc	de
   0231 7B            [ 4]  373 	ld	a, e
   0232 DD 86 04      [19]  374 	add	a, 4 (ix)
   0235 DD 77 FC      [19]  375 	ld	-4 (ix), a
   0238 7A            [ 4]  376 	ld	a, d
   0239 DD 8E 05      [19]  377 	adc	a, 5 (ix)
   023C DD 77 FD      [19]  378 	ld	-3 (ix), a
   023F DD 5E FA      [19]  379 	ld	e, -6 (ix)
   0242 DD 56 FB      [19]  380 	ld	d, -5 (ix)
   0245 13            [ 6]  381 	inc	de
   0246 DD 6E 04      [19]  382 	ld	l, 4 (ix)
   0249 DD 66 05      [19]  383 	ld	h, 5 (ix)
   024C 19            [11]  384 	add	hl, de
   024D 7E            [ 7]  385 	ld	a, (hl)
   024E DD 6E F4      [19]  386 	ld	l, -12 (ix)
   0251 DD 66 F5      [19]  387 	ld	h, -11 (ix)
   0254 5E            [ 7]  388 	ld	e, (hl)
   0255 AB            [ 4]  389 	xor	a, e
   0256 DD 6E FC      [19]  390 	ld	l, -4 (ix)
   0259 DD 66 FD      [19]  391 	ld	h, -3 (ix)
   025C 77            [ 7]  392 	ld	(hl), a
                            393 ;aes_128.c:78: RoundKey[j + 2] = RoundKey[k + 2] ^ tempa[2];
   025D DD 5E F8      [19]  394 	ld	e, -8 (ix)
   0260 DD 56 F9      [19]  395 	ld	d, -7 (ix)
   0263 13            [ 6]  396 	inc	de
   0264 13            [ 6]  397 	inc	de
   0265 7B            [ 4]  398 	ld	a, e
   0266 DD 86 04      [19]  399 	add	a, 4 (ix)
   0269 DD 77 FC      [19]  400 	ld	-4 (ix), a
   026C 7A            [ 4]  401 	ld	a, d
   026D DD 8E 05      [19]  402 	adc	a, 5 (ix)
   0270 DD 77 FD      [19]  403 	ld	-3 (ix), a
   0273 DD 5E FA      [19]  404 	ld	e, -6 (ix)
   0276 DD 56 FB      [19]  405 	ld	d, -5 (ix)
   0279 13            [ 6]  406 	inc	de
   027A 13            [ 6]  407 	inc	de
   027B DD 6E 04      [19]  408 	ld	l, 4 (ix)
   027E DD 66 05      [19]  409 	ld	h, 5 (ix)
   0281 19            [11]  410 	add	hl, de
   0282 7E            [ 7]  411 	ld	a, (hl)
   0283 DD 6E F6      [19]  412 	ld	l, -10 (ix)
   0286 DD 66 F7      [19]  413 	ld	h, -9 (ix)
   0289 5E            [ 7]  414 	ld	e, (hl)
   028A AB            [ 4]  415 	xor	a, e
   028B DD 6E FC      [19]  416 	ld	l, -4 (ix)
   028E DD 66 FD      [19]  417 	ld	h, -3 (ix)
   0291 77            [ 7]  418 	ld	(hl), a
                            419 ;aes_128.c:79: RoundKey[j + 3] = RoundKey[k + 3] ^ tempa[3];
   0292 DD 5E F8      [19]  420 	ld	e, -8 (ix)
   0295 DD 56 F9      [19]  421 	ld	d, -7 (ix)
   0298 13            [ 6]  422 	inc	de
   0299 13            [ 6]  423 	inc	de
   029A 13            [ 6]  424 	inc	de
   029B 7B            [ 4]  425 	ld	a, e
   029C DD 86 04      [19]  426 	add	a, 4 (ix)
   029F DD 77 FC      [19]  427 	ld	-4 (ix), a
   02A2 7A            [ 4]  428 	ld	a, d
   02A3 DD 8E 05      [19]  429 	adc	a, 5 (ix)
   02A6 DD 77 FD      [19]  430 	ld	-3 (ix), a
   02A9 DD 5E FA      [19]  431 	ld	e, -6 (ix)
   02AC DD 56 FB      [19]  432 	ld	d, -5 (ix)
   02AF 13            [ 6]  433 	inc	de
   02B0 13            [ 6]  434 	inc	de
   02B1 13            [ 6]  435 	inc	de
   02B2 DD 6E 04      [19]  436 	ld	l, 4 (ix)
   02B5 DD 66 05      [19]  437 	ld	h, 5 (ix)
   02B8 19            [11]  438 	add	hl, de
   02B9 5E            [ 7]  439 	ld	e, (hl)
   02BA 0A            [ 7]  440 	ld	a, (bc)
   02BB AB            [ 4]  441 	xor	a, e
   02BC DD 6E FC      [19]  442 	ld	l, -4 (ix)
   02BF DD 66 FD      [19]  443 	ld	h, -3 (ix)
   02C2 77            [ 7]  444 	ld	(hl), a
                            445 ;aes_128.c:52: for (i = 4; i < 4 * (10 + 1); ++i) {
   02C3 DD 34 FE      [23]  446 	inc	-2 (ix)
   02C6 20 03         [12]  447 	jr	NZ,00140$
   02C8 DD 34 FF      [23]  448 	inc	-1 (ix)
   02CB                     449 00140$:
   02CB DD 7E FE      [19]  450 	ld	a, -2 (ix)
   02CE D6 2C         [ 7]  451 	sub	a, #0x2c
   02D0 DD 7E FF      [19]  452 	ld	a, -1 (ix)
   02D3 DE 00         [ 7]  453 	sbc	a, #0x00
   02D5 DArAEr00      [10]  454 	jp	C, 00107$
                            455 ;aes_128.c:81: }
   02D8 DD F9         [10]  456 	ld	sp, ix
   02DA DD E1         [14]  457 	pop	ix
   02DC C9            [10]  458 	ret
   02DD                     459 _sbox:
   02DD 63                  460 	.db #0x63	; 99	'c'
   02DE 7C                  461 	.db #0x7c	; 124
   02DF 77                  462 	.db #0x77	; 119	'w'
   02E0 7B                  463 	.db #0x7b	; 123
   02E1 F2                  464 	.db #0xf2	; 242
   02E2 6B                  465 	.db #0x6b	; 107	'k'
   02E3 6F                  466 	.db #0x6f	; 111	'o'
   02E4 C5                  467 	.db #0xc5	; 197
   02E5 30                  468 	.db #0x30	; 48	'0'
   02E6 01                  469 	.db #0x01	; 1
   02E7 67                  470 	.db #0x67	; 103	'g'
   02E8 2B                  471 	.db #0x2b	; 43
   02E9 FE                  472 	.db #0xfe	; 254
   02EA D7                  473 	.db #0xd7	; 215
   02EB AB                  474 	.db #0xab	; 171
   02EC 76                  475 	.db #0x76	; 118	'v'
   02ED CA                  476 	.db #0xca	; 202
   02EE 82                  477 	.db #0x82	; 130
   02EF C9                  478 	.db #0xc9	; 201
   02F0 7D                  479 	.db #0x7d	; 125
   02F1 FA                  480 	.db #0xfa	; 250
   02F2 59                  481 	.db #0x59	; 89	'Y'
   02F3 47                  482 	.db #0x47	; 71	'G'
   02F4 F0                  483 	.db #0xf0	; 240
   02F5 AD                  484 	.db #0xad	; 173
   02F6 D4                  485 	.db #0xd4	; 212
   02F7 A2                  486 	.db #0xa2	; 162
   02F8 AF                  487 	.db #0xaf	; 175
   02F9 9C                  488 	.db #0x9c	; 156
   02FA A4                  489 	.db #0xa4	; 164
   02FB 72                  490 	.db #0x72	; 114	'r'
   02FC C0                  491 	.db #0xc0	; 192
   02FD B7                  492 	.db #0xb7	; 183
   02FE FD                  493 	.db #0xfd	; 253
   02FF 93                  494 	.db #0x93	; 147
   0300 26                  495 	.db #0x26	; 38
   0301 36                  496 	.db #0x36	; 54	'6'
   0302 3F                  497 	.db #0x3f	; 63
   0303 F7                  498 	.db #0xf7	; 247
   0304 CC                  499 	.db #0xcc	; 204
   0305 34                  500 	.db #0x34	; 52	'4'
   0306 A5                  501 	.db #0xa5	; 165
   0307 E5                  502 	.db #0xe5	; 229
   0308 F1                  503 	.db #0xf1	; 241
   0309 71                  504 	.db #0x71	; 113	'q'
   030A D8                  505 	.db #0xd8	; 216
   030B 31                  506 	.db #0x31	; 49	'1'
   030C 15                  507 	.db #0x15	; 21
   030D 04                  508 	.db #0x04	; 4
   030E C7                  509 	.db #0xc7	; 199
   030F 23                  510 	.db #0x23	; 35
   0310 C3                  511 	.db #0xc3	; 195
   0311 18                  512 	.db #0x18	; 24
   0312 96                  513 	.db #0x96	; 150
   0313 05                  514 	.db #0x05	; 5
   0314 9A                  515 	.db #0x9a	; 154
   0315 07                  516 	.db #0x07	; 7
   0316 12                  517 	.db #0x12	; 18
   0317 80                  518 	.db #0x80	; 128
   0318 E2                  519 	.db #0xe2	; 226
   0319 EB                  520 	.db #0xeb	; 235
   031A 27                  521 	.db #0x27	; 39
   031B B2                  522 	.db #0xb2	; 178
   031C 75                  523 	.db #0x75	; 117	'u'
   031D 09                  524 	.db #0x09	; 9
   031E 83                  525 	.db #0x83	; 131
   031F 2C                  526 	.db #0x2c	; 44
   0320 1A                  527 	.db #0x1a	; 26
   0321 1B                  528 	.db #0x1b	; 27
   0322 6E                  529 	.db #0x6e	; 110	'n'
   0323 5A                  530 	.db #0x5a	; 90	'Z'
   0324 A0                  531 	.db #0xa0	; 160
   0325 52                  532 	.db #0x52	; 82	'R'
   0326 3B                  533 	.db #0x3b	; 59
   0327 D6                  534 	.db #0xd6	; 214
   0328 B3                  535 	.db #0xb3	; 179
   0329 29                  536 	.db #0x29	; 41
   032A E3                  537 	.db #0xe3	; 227
   032B 2F                  538 	.db #0x2f	; 47
   032C 84                  539 	.db #0x84	; 132
   032D 53                  540 	.db #0x53	; 83	'S'
   032E D1                  541 	.db #0xd1	; 209
   032F 00                  542 	.db #0x00	; 0
   0330 ED                  543 	.db #0xed	; 237
   0331 20                  544 	.db #0x20	; 32
   0332 FC                  545 	.db #0xfc	; 252
   0333 B1                  546 	.db #0xb1	; 177
   0334 5B                  547 	.db #0x5b	; 91
   0335 6A                  548 	.db #0x6a	; 106	'j'
   0336 CB                  549 	.db #0xcb	; 203
   0337 BE                  550 	.db #0xbe	; 190
   0338 39                  551 	.db #0x39	; 57	'9'
   0339 4A                  552 	.db #0x4a	; 74	'J'
   033A 4C                  553 	.db #0x4c	; 76	'L'
   033B 58                  554 	.db #0x58	; 88	'X'
   033C CF                  555 	.db #0xcf	; 207
   033D D0                  556 	.db #0xd0	; 208
   033E EF                  557 	.db #0xef	; 239
   033F AA                  558 	.db #0xaa	; 170
   0340 FB                  559 	.db #0xfb	; 251
   0341 43                  560 	.db #0x43	; 67	'C'
   0342 4D                  561 	.db #0x4d	; 77	'M'
   0343 33                  562 	.db #0x33	; 51	'3'
   0344 85                  563 	.db #0x85	; 133
   0345 45                  564 	.db #0x45	; 69	'E'
   0346 F9                  565 	.db #0xf9	; 249
   0347 02                  566 	.db #0x02	; 2
   0348 7F                  567 	.db #0x7f	; 127
   0349 50                  568 	.db #0x50	; 80	'P'
   034A 3C                  569 	.db #0x3c	; 60
   034B 9F                  570 	.db #0x9f	; 159
   034C A8                  571 	.db #0xa8	; 168
   034D 51                  572 	.db #0x51	; 81	'Q'
   034E A3                  573 	.db #0xa3	; 163
   034F 40                  574 	.db #0x40	; 64
   0350 8F                  575 	.db #0x8f	; 143
   0351 92                  576 	.db #0x92	; 146
   0352 9D                  577 	.db #0x9d	; 157
   0353 38                  578 	.db #0x38	; 56	'8'
   0354 F5                  579 	.db #0xf5	; 245
   0355 BC                  580 	.db #0xbc	; 188
   0356 B6                  581 	.db #0xb6	; 182
   0357 DA                  582 	.db #0xda	; 218
   0358 21                  583 	.db #0x21	; 33
   0359 10                  584 	.db #0x10	; 16
   035A FF                  585 	.db #0xff	; 255
   035B F3                  586 	.db #0xf3	; 243
   035C D2                  587 	.db #0xd2	; 210
   035D CD                  588 	.db #0xcd	; 205
   035E 0C                  589 	.db #0x0c	; 12
   035F 13                  590 	.db #0x13	; 19
   0360 EC                  591 	.db #0xec	; 236
   0361 5F                  592 	.db #0x5f	; 95
   0362 97                  593 	.db #0x97	; 151
   0363 44                  594 	.db #0x44	; 68	'D'
   0364 17                  595 	.db #0x17	; 23
   0365 C4                  596 	.db #0xc4	; 196
   0366 A7                  597 	.db #0xa7	; 167
   0367 7E                  598 	.db #0x7e	; 126
   0368 3D                  599 	.db #0x3d	; 61
   0369 64                  600 	.db #0x64	; 100	'd'
   036A 5D                  601 	.db #0x5d	; 93
   036B 19                  602 	.db #0x19	; 25
   036C 73                  603 	.db #0x73	; 115	's'
   036D 60                  604 	.db #0x60	; 96
   036E 81                  605 	.db #0x81	; 129
   036F 4F                  606 	.db #0x4f	; 79	'O'
   0370 DC                  607 	.db #0xdc	; 220
   0371 22                  608 	.db #0x22	; 34
   0372 2A                  609 	.db #0x2a	; 42
   0373 90                  610 	.db #0x90	; 144
   0374 88                  611 	.db #0x88	; 136
   0375 46                  612 	.db #0x46	; 70	'F'
   0376 EE                  613 	.db #0xee	; 238
   0377 B8                  614 	.db #0xb8	; 184
   0378 14                  615 	.db #0x14	; 20
   0379 DE                  616 	.db #0xde	; 222
   037A 5E                  617 	.db #0x5e	; 94
   037B 0B                  618 	.db #0x0b	; 11
   037C DB                  619 	.db #0xdb	; 219
   037D E0                  620 	.db #0xe0	; 224
   037E 32                  621 	.db #0x32	; 50	'2'
   037F 3A                  622 	.db #0x3a	; 58
   0380 0A                  623 	.db #0x0a	; 10
   0381 49                  624 	.db #0x49	; 73	'I'
   0382 06                  625 	.db #0x06	; 6
   0383 24                  626 	.db #0x24	; 36
   0384 5C                  627 	.db #0x5c	; 92
   0385 C2                  628 	.db #0xc2	; 194
   0386 D3                  629 	.db #0xd3	; 211
   0387 AC                  630 	.db #0xac	; 172
   0388 62                  631 	.db #0x62	; 98	'b'
   0389 91                  632 	.db #0x91	; 145
   038A 95                  633 	.db #0x95	; 149
   038B E4                  634 	.db #0xe4	; 228
   038C 79                  635 	.db #0x79	; 121	'y'
   038D E7                  636 	.db #0xe7	; 231
   038E C8                  637 	.db #0xc8	; 200
   038F 37                  638 	.db #0x37	; 55	'7'
   0390 6D                  639 	.db #0x6d	; 109	'm'
   0391 8D                  640 	.db #0x8d	; 141
   0392 D5                  641 	.db #0xd5	; 213
   0393 4E                  642 	.db #0x4e	; 78	'N'
   0394 A9                  643 	.db #0xa9	; 169
   0395 6C                  644 	.db #0x6c	; 108	'l'
   0396 56                  645 	.db #0x56	; 86	'V'
   0397 F4                  646 	.db #0xf4	; 244
   0398 EA                  647 	.db #0xea	; 234
   0399 65                  648 	.db #0x65	; 101	'e'
   039A 7A                  649 	.db #0x7a	; 122	'z'
   039B AE                  650 	.db #0xae	; 174
   039C 08                  651 	.db #0x08	; 8
   039D BA                  652 	.db #0xba	; 186
   039E 78                  653 	.db #0x78	; 120	'x'
   039F 25                  654 	.db #0x25	; 37
   03A0 2E                  655 	.db #0x2e	; 46
   03A1 1C                  656 	.db #0x1c	; 28
   03A2 A6                  657 	.db #0xa6	; 166
   03A3 B4                  658 	.db #0xb4	; 180
   03A4 C6                  659 	.db #0xc6	; 198
   03A5 E8                  660 	.db #0xe8	; 232
   03A6 DD                  661 	.db #0xdd	; 221
   03A7 74                  662 	.db #0x74	; 116	't'
   03A8 1F                  663 	.db #0x1f	; 31
   03A9 4B                  664 	.db #0x4b	; 75	'K'
   03AA BD                  665 	.db #0xbd	; 189
   03AB 8B                  666 	.db #0x8b	; 139
   03AC 8A                  667 	.db #0x8a	; 138
   03AD 70                  668 	.db #0x70	; 112	'p'
   03AE 3E                  669 	.db #0x3e	; 62
   03AF B5                  670 	.db #0xb5	; 181
   03B0 66                  671 	.db #0x66	; 102	'f'
   03B1 48                  672 	.db #0x48	; 72	'H'
   03B2 03                  673 	.db #0x03	; 3
   03B3 F6                  674 	.db #0xf6	; 246
   03B4 0E                  675 	.db #0x0e	; 14
   03B5 61                  676 	.db #0x61	; 97	'a'
   03B6 35                  677 	.db #0x35	; 53	'5'
   03B7 57                  678 	.db #0x57	; 87	'W'
   03B8 B9                  679 	.db #0xb9	; 185
   03B9 86                  680 	.db #0x86	; 134
   03BA C1                  681 	.db #0xc1	; 193
   03BB 1D                  682 	.db #0x1d	; 29
   03BC 9E                  683 	.db #0x9e	; 158
   03BD E1                  684 	.db #0xe1	; 225
   03BE F8                  685 	.db #0xf8	; 248
   03BF 98                  686 	.db #0x98	; 152
   03C0 11                  687 	.db #0x11	; 17
   03C1 69                  688 	.db #0x69	; 105	'i'
   03C2 D9                  689 	.db #0xd9	; 217
   03C3 8E                  690 	.db #0x8e	; 142
   03C4 94                  691 	.db #0x94	; 148
   03C5 9B                  692 	.db #0x9b	; 155
   03C6 1E                  693 	.db #0x1e	; 30
   03C7 87                  694 	.db #0x87	; 135
   03C8 E9                  695 	.db #0xe9	; 233
   03C9 CE                  696 	.db #0xce	; 206
   03CA 55                  697 	.db #0x55	; 85	'U'
   03CB 28                  698 	.db #0x28	; 40
   03CC DF                  699 	.db #0xdf	; 223
   03CD 8C                  700 	.db #0x8c	; 140
   03CE A1                  701 	.db #0xa1	; 161
   03CF 89                  702 	.db #0x89	; 137
   03D0 0D                  703 	.db #0x0d	; 13
   03D1 BF                  704 	.db #0xbf	; 191
   03D2 E6                  705 	.db #0xe6	; 230
   03D3 42                  706 	.db #0x42	; 66	'B'
   03D4 68                  707 	.db #0x68	; 104	'h'
   03D5 41                  708 	.db #0x41	; 65	'A'
   03D6 99                  709 	.db #0x99	; 153
   03D7 2D                  710 	.db #0x2d	; 45
   03D8 0F                  711 	.db #0x0f	; 15
   03D9 B0                  712 	.db #0xb0	; 176
   03DA 54                  713 	.db #0x54	; 84	'T'
   03DB BB                  714 	.db #0xbb	; 187
   03DC 16                  715 	.db #0x16	; 22
   03DD                     716 _Rcon:
   03DD 8D                  717 	.db #0x8d	; 141
   03DE 01                  718 	.db #0x01	; 1
   03DF 02                  719 	.db #0x02	; 2
   03E0 04                  720 	.db #0x04	; 4
   03E1 08                  721 	.db #0x08	; 8
   03E2 10                  722 	.db #0x10	; 16
   03E3 20                  723 	.db #0x20	; 32
   03E4 40                  724 	.db #0x40	; 64
   03E5 80                  725 	.db #0x80	; 128
   03E6 1B                  726 	.db #0x1b	; 27
   03E7 36                  727 	.db #0x36	; 54	'6'
                            728 ;aes_128.c:83: void AddRoundKey(uint8_t round, uint8_t* state, const uint8_t* RoundKey) {
                            729 ;	---------------------------------
                            730 ; Function AddRoundKey
                            731 ; ---------------------------------
   03E8                     732 _AddRoundKey::
   03E8 DD E5         [15]  733 	push	ix
   03EA DD 21 00 00   [14]  734 	ld	ix,#0
   03EE DD 39         [15]  735 	add	ix,sp
   03F0 F5            [11]  736 	push	af
   03F1 3B            [ 6]  737 	dec	sp
                            738 ;aes_128.c:84: for (int i = 0; i < 16; ++i) {
   03F2 01 00 00      [10]  739 	ld	bc, #0x0000
   03F5                     740 00103$:
   03F5 79            [ 4]  741 	ld	a, c
   03F6 D6 10         [ 7]  742 	sub	a, #0x10
   03F8 78            [ 4]  743 	ld	a, b
   03F9 17            [ 4]  744 	rla
   03FA 3F            [ 4]  745 	ccf
   03FB 1F            [ 4]  746 	rra
   03FC DE 80         [ 7]  747 	sbc	a, #0x80
   03FE 30 34         [12]  748 	jr	NC,00105$
                            749 ;aes_128.c:85: state[i] ^= RoundKey[(round * 16) + i]; // XOR Op (Feature)
   0400 DD 7E 05      [19]  750 	ld	a, 5 (ix)
   0403 81            [ 4]  751 	add	a, c
   0404 5F            [ 4]  752 	ld	e, a
   0405 DD 7E 06      [19]  753 	ld	a, 6 (ix)
   0408 88            [ 4]  754 	adc	a, b
   0409 57            [ 4]  755 	ld	d, a
   040A 1A            [ 7]  756 	ld	a, (de)
   040B DD 77 FD      [19]  757 	ld	-3 (ix), a
   040E DD 6E 04      [19]  758 	ld	l, 4 (ix)
   0411 26 00         [ 7]  759 	ld	h, #0x00
   0413 29            [11]  760 	add	hl, hl
   0414 29            [11]  761 	add	hl, hl
   0415 29            [11]  762 	add	hl, hl
   0416 29            [11]  763 	add	hl, hl
   0417 09            [11]  764 	add	hl, bc
   0418 DD 75 FE      [19]  765 	ld	-2 (ix), l
   041B DD 74 FF      [19]  766 	ld	-1 (ix), h
   041E DD 7E FE      [19]  767 	ld	a, -2 (ix)
   0421 DD 86 07      [19]  768 	add	a, 7 (ix)
   0424 6F            [ 4]  769 	ld	l, a
   0425 DD 7E FF      [19]  770 	ld	a, -1 (ix)
   0428 DD 8E 08      [19]  771 	adc	a, 8 (ix)
   042B 67            [ 4]  772 	ld	h, a
   042C 7E            [ 7]  773 	ld	a, (hl)
   042D DD AE FD      [19]  774 	xor	a, -3 (ix)
   0430 12            [ 7]  775 	ld	(de), a
                            776 ;aes_128.c:84: for (int i = 0; i < 16; ++i) {
   0431 03            [ 6]  777 	inc	bc
   0432 18 C1         [12]  778 	jr	00103$
   0434                     779 00105$:
                            780 ;aes_128.c:87: }
   0434 DD F9         [10]  781 	ld	sp, ix
   0436 DD E1         [14]  782 	pop	ix
   0438 C9            [10]  783 	ret
                            784 ;aes_128.c:89: void SubBytes(uint8_t* state) {
                            785 ;	---------------------------------
                            786 ; Function SubBytes
                            787 ; ---------------------------------
   0439                     788 _SubBytes::
   0439 DD E5         [15]  789 	push	ix
   043B DD 21 00 00   [14]  790 	ld	ix,#0
   043F DD 39         [15]  791 	add	ix,sp
                            792 ;aes_128.c:90: for (int i = 0; i < 16; ++i) {
   0441 01 00 00      [10]  793 	ld	bc, #0x0000
   0444                     794 00103$:
   0444 79            [ 4]  795 	ld	a, c
   0445 D6 10         [ 7]  796 	sub	a, #0x10
   0447 78            [ 4]  797 	ld	a, b
   0448 17            [ 4]  798 	rla
   0449 3F            [ 4]  799 	ccf
   044A 1F            [ 4]  800 	rra
   044B DE 80         [ 7]  801 	sbc	a, #0x80
   044D 30 18         [12]  802 	jr	NC,00105$
                            803 ;aes_128.c:91: state[i] = sbox[state[i]]; // Table Lookup (Feature)
   044F DD 7E 04      [19]  804 	ld	a, 4 (ix)
   0452 81            [ 4]  805 	add	a, c
   0453 5F            [ 4]  806 	ld	e, a
   0454 DD 7E 05      [19]  807 	ld	a, 5 (ix)
   0457 88            [ 4]  808 	adc	a, b
   0458 57            [ 4]  809 	ld	d, a
   0459 1A            [ 7]  810 	ld	a, (de)
   045A C6rDD         [ 7]  811 	add	a, #<(_sbox)
   045C 6F            [ 4]  812 	ld	l, a
   045D 3E 00         [ 7]  813 	ld	a, #0x00
   045F CEs02         [ 7]  814 	adc	a, #>(_sbox)
   0461 67            [ 4]  815 	ld	h, a
   0462 7E            [ 7]  816 	ld	a, (hl)
   0463 12            [ 7]  817 	ld	(de), a
                            818 ;aes_128.c:90: for (int i = 0; i < 16; ++i) {
   0464 03            [ 6]  819 	inc	bc
   0465 18 DD         [12]  820 	jr	00103$
   0467                     821 00105$:
                            822 ;aes_128.c:93: }
   0467 DD E1         [14]  823 	pop	ix
   0469 C9            [10]  824 	ret
                            825 ;aes_128.c:95: void ShiftRows(uint8_t* state) {
                            826 ;	---------------------------------
                            827 ; Function ShiftRows
                            828 ; ---------------------------------
   046A                     829 _ShiftRows::
   046A DD E5         [15]  830 	push	ix
   046C DD 21 00 00   [14]  831 	ld	ix,#0
   0470 DD 39         [15]  832 	add	ix,sp
   0472 21 EE FF      [10]  833 	ld	hl, #-18
   0475 39            [11]  834 	add	hl, sp
   0476 F9            [ 6]  835 	ld	sp, hl
                            836 ;aes_128.c:99: temp[0] = state[0];  temp[1] = state[5];  temp[2] = state[10]; temp[3] = state[15];
   0477 21 00 00      [10]  837 	ld	hl, #0
   047A 39            [11]  838 	add	hl, sp
   047B 4D            [ 4]  839 	ld	c, l
   047C 44            [ 4]  840 	ld	b, h
   047D DD 7E 04      [19]  841 	ld	a, 4 (ix)
   0480 DD 77 FE      [19]  842 	ld	-2 (ix), a
   0483 DD 7E 05      [19]  843 	ld	a, 5 (ix)
   0486 DD 77 FF      [19]  844 	ld	-1 (ix), a
   0489 DD 6E FE      [19]  845 	ld	l, -2 (ix)
   048C DD 66 FF      [19]  846 	ld	h, -1 (ix)
   048F 7E            [ 7]  847 	ld	a, (hl)
   0490 02            [ 7]  848 	ld	(bc), a
   0491 59            [ 4]  849 	ld	e, c
   0492 50            [ 4]  850 	ld	d, b
   0493 13            [ 6]  851 	inc	de
   0494 DD 6E FE      [19]  852 	ld	l, -2 (ix)
   0497 DD 66 FF      [19]  853 	ld	h, -1 (ix)
   049A 23            [ 6]  854 	inc	hl
   049B 23            [ 6]  855 	inc	hl
   049C 23            [ 6]  856 	inc	hl
   049D 23            [ 6]  857 	inc	hl
   049E 23            [ 6]  858 	inc	hl
   049F 7E            [ 7]  859 	ld	a, (hl)
   04A0 12            [ 7]  860 	ld	(de), a
   04A1 59            [ 4]  861 	ld	e, c
   04A2 50            [ 4]  862 	ld	d, b
   04A3 13            [ 6]  863 	inc	de
   04A4 13            [ 6]  864 	inc	de
   04A5 DD 6E FE      [19]  865 	ld	l, -2 (ix)
   04A8 DD 66 FF      [19]  866 	ld	h, -1 (ix)
   04AB C5            [11]  867 	push	bc
   04AC 01 0A 00      [10]  868 	ld	bc, #0x000a
   04AF 09            [11]  869 	add	hl, bc
   04B0 C1            [10]  870 	pop	bc
   04B1 7E            [ 7]  871 	ld	a, (hl)
   04B2 12            [ 7]  872 	ld	(de), a
   04B3 59            [ 4]  873 	ld	e, c
   04B4 50            [ 4]  874 	ld	d, b
   04B5 13            [ 6]  875 	inc	de
   04B6 13            [ 6]  876 	inc	de
   04B7 13            [ 6]  877 	inc	de
   04B8 DD 6E FE      [19]  878 	ld	l, -2 (ix)
   04BB DD 66 FF      [19]  879 	ld	h, -1 (ix)
   04BE C5            [11]  880 	push	bc
   04BF 01 0F 00      [10]  881 	ld	bc, #0x000f
   04C2 09            [11]  882 	add	hl, bc
   04C3 C1            [10]  883 	pop	bc
   04C4 7E            [ 7]  884 	ld	a, (hl)
   04C5 12            [ 7]  885 	ld	(de), a
                            886 ;aes_128.c:100: temp[4] = state[4];  temp[5] = state[9];  temp[6] = state[14]; temp[7] = state[3];
   04C6 21 04 00      [10]  887 	ld	hl, #0x0004
   04C9 09            [11]  888 	add	hl, bc
   04CA EB            [ 4]  889 	ex	de, hl
   04CB DD 6E FE      [19]  890 	ld	l, -2 (ix)
   04CE DD 66 FF      [19]  891 	ld	h, -1 (ix)
   04D1 23            [ 6]  892 	inc	hl
   04D2 23            [ 6]  893 	inc	hl
   04D3 23            [ 6]  894 	inc	hl
   04D4 23            [ 6]  895 	inc	hl
   04D5 7E            [ 7]  896 	ld	a, (hl)
   04D6 12            [ 7]  897 	ld	(de), a
   04D7 21 05 00      [10]  898 	ld	hl, #0x0005
   04DA 09            [11]  899 	add	hl, bc
   04DB EB            [ 4]  900 	ex	de, hl
   04DC DD 6E FE      [19]  901 	ld	l, -2 (ix)
   04DF DD 66 FF      [19]  902 	ld	h, -1 (ix)
   04E2 C5            [11]  903 	push	bc
   04E3 01 09 00      [10]  904 	ld	bc, #0x0009
   04E6 09            [11]  905 	add	hl, bc
   04E7 C1            [10]  906 	pop	bc
   04E8 7E            [ 7]  907 	ld	a, (hl)
   04E9 12            [ 7]  908 	ld	(de), a
   04EA 21 06 00      [10]  909 	ld	hl, #0x0006
   04ED 09            [11]  910 	add	hl, bc
   04EE EB            [ 4]  911 	ex	de, hl
   04EF DD 6E FE      [19]  912 	ld	l, -2 (ix)
   04F2 DD 66 FF      [19]  913 	ld	h, -1 (ix)
   04F5 C5            [11]  914 	push	bc
   04F6 01 0E 00      [10]  915 	ld	bc, #0x000e
   04F9 09            [11]  916 	add	hl, bc
   04FA C1            [10]  917 	pop	bc
   04FB 7E            [ 7]  918 	ld	a, (hl)
   04FC 12            [ 7]  919 	ld	(de), a
   04FD 21 07 00      [10]  920 	ld	hl, #0x0007
   0500 09            [11]  921 	add	hl, bc
   0501 EB            [ 4]  922 	ex	de, hl
   0502 DD 6E FE      [19]  923 	ld	l, -2 (ix)
   0505 DD 66 FF      [19]  924 	ld	h, -1 (ix)
   0508 23            [ 6]  925 	inc	hl
   0509 23            [ 6]  926 	inc	hl
   050A 23            [ 6]  927 	inc	hl
   050B 7E            [ 7]  928 	ld	a, (hl)
   050C 12            [ 7]  929 	ld	(de), a
                            930 ;aes_128.c:101: temp[8] = state[8];  temp[9] = state[13]; temp[10] = state[2]; temp[11] = state[7];
   050D 21 08 00      [10]  931 	ld	hl, #0x0008
   0510 09            [11]  932 	add	hl, bc
   0511 EB            [ 4]  933 	ex	de, hl
   0512 DD 6E FE      [19]  934 	ld	l, -2 (ix)
   0515 DD 66 FF      [19]  935 	ld	h, -1 (ix)
   0518 C5            [11]  936 	push	bc
   0519 01 08 00      [10]  937 	ld	bc, #0x0008
   051C 09            [11]  938 	add	hl, bc
   051D C1            [10]  939 	pop	bc
   051E 7E            [ 7]  940 	ld	a, (hl)
   051F 12            [ 7]  941 	ld	(de), a
   0520 21 09 00      [10]  942 	ld	hl, #0x0009
   0523 09            [11]  943 	add	hl, bc
   0524 EB            [ 4]  944 	ex	de, hl
   0525 DD 6E FE      [19]  945 	ld	l, -2 (ix)
   0528 DD 66 FF      [19]  946 	ld	h, -1 (ix)
   052B C5            [11]  947 	push	bc
   052C 01 0D 00      [10]  948 	ld	bc, #0x000d
   052F 09            [11]  949 	add	hl, bc
   0530 C1            [10]  950 	pop	bc
   0531 7E            [ 7]  951 	ld	a, (hl)
   0532 12            [ 7]  952 	ld	(de), a
   0533 21 0A 00      [10]  953 	ld	hl, #0x000a
   0536 09            [11]  954 	add	hl, bc
   0537 EB            [ 4]  955 	ex	de, hl
   0538 DD 6E FE      [19]  956 	ld	l, -2 (ix)
   053B DD 66 FF      [19]  957 	ld	h, -1 (ix)
   053E 23            [ 6]  958 	inc	hl
   053F 23            [ 6]  959 	inc	hl
   0540 7E            [ 7]  960 	ld	a, (hl)
   0541 12            [ 7]  961 	ld	(de), a
   0542 21 0B 00      [10]  962 	ld	hl, #0x000b
   0545 09            [11]  963 	add	hl, bc
   0546 EB            [ 4]  964 	ex	de, hl
   0547 DD 6E FE      [19]  965 	ld	l, -2 (ix)
   054A DD 66 FF      [19]  966 	ld	h, -1 (ix)
   054D C5            [11]  967 	push	bc
   054E 01 07 00      [10]  968 	ld	bc, #0x0007
   0551 09            [11]  969 	add	hl, bc
   0552 C1            [10]  970 	pop	bc
   0553 7E            [ 7]  971 	ld	a, (hl)
   0554 12            [ 7]  972 	ld	(de), a
                            973 ;aes_128.c:102: temp[12] = state[12]; temp[13] = state[1]; temp[14] = state[6]; temp[15] = state[11];
   0555 21 0C 00      [10]  974 	ld	hl, #0x000c
   0558 09            [11]  975 	add	hl, bc
   0559 EB            [ 4]  976 	ex	de, hl
   055A DD 6E FE      [19]  977 	ld	l, -2 (ix)
   055D DD 66 FF      [19]  978 	ld	h, -1 (ix)
   0560 C5            [11]  979 	push	bc
   0561 01 0C 00      [10]  980 	ld	bc, #0x000c
   0564 09            [11]  981 	add	hl, bc
   0565 C1            [10]  982 	pop	bc
   0566 7E            [ 7]  983 	ld	a, (hl)
   0567 12            [ 7]  984 	ld	(de), a
   0568 21 0D 00      [10]  985 	ld	hl, #0x000d
   056B 09            [11]  986 	add	hl, bc
   056C EB            [ 4]  987 	ex	de, hl
   056D DD 6E FE      [19]  988 	ld	l, -2 (ix)
   0570 DD 66 FF      [19]  989 	ld	h, -1 (ix)
   0573 23            [ 6]  990 	inc	hl
   0574 7E            [ 7]  991 	ld	a, (hl)
   0575 12            [ 7]  992 	ld	(de), a
   0576 21 0E 00      [10]  993 	ld	hl, #0x000e
   0579 09            [11]  994 	add	hl, bc
   057A EB            [ 4]  995 	ex	de, hl
   057B DD 6E FE      [19]  996 	ld	l, -2 (ix)
   057E DD 66 FF      [19]  997 	ld	h, -1 (ix)
   0581 C5            [11]  998 	push	bc
   0582 01 06 00      [10]  999 	ld	bc, #0x0006
   0585 09            [11] 1000 	add	hl, bc
   0586 C1            [10] 1001 	pop	bc
   0587 7E            [ 7] 1002 	ld	a, (hl)
   0588 12            [ 7] 1003 	ld	(de), a
   0589 21 0F 00      [10] 1004 	ld	hl, #0x000f
   058C 09            [11] 1005 	add	hl, bc
   058D EB            [ 4] 1006 	ex	de, hl
   058E DD 6E FE      [19] 1007 	ld	l, -2 (ix)
   0591 DD 66 FF      [19] 1008 	ld	h, -1 (ix)
   0594 C5            [11] 1009 	push	bc
   0595 01 0B 00      [10] 1010 	ld	bc, #0x000b
   0598 09            [11] 1011 	add	hl, bc
   0599 C1            [10] 1012 	pop	bc
   059A 7E            [ 7] 1013 	ld	a, (hl)
   059B 12            [ 7] 1014 	ld	(de), a
                           1015 ;aes_128.c:103: memcpy(state, temp, 16);
   059C DD 5E 04      [19] 1016 	ld	e, 4 (ix)
   059F DD 56 05      [19] 1017 	ld	d, 5 (ix)
   05A2 69            [ 4] 1018 	ld	l, c
   05A3 60            [ 4] 1019 	ld	h, b
   05A4 01 10 00      [10] 1020 	ld	bc, #0x0010
   05A7 ED B0         [21] 1021 	ldir
                           1022 ;aes_128.c:104: }
   05A9 DD F9         [10] 1023 	ld	sp, ix
   05AB DD E1         [14] 1024 	pop	ix
   05AD C9            [10] 1025 	ret
                           1026 ;aes_128.c:106: void AES_Encrypt(uint8_t* state, const uint8_t* key) {
                           1027 ;	---------------------------------
                           1028 ; Function AES_Encrypt
                           1029 ; ---------------------------------
   05AE                    1030 _AES_Encrypt::
   05AE DD E5         [15] 1031 	push	ix
   05B0 DD 21 00 00   [14] 1032 	ld	ix,#0
   05B4 DD 39         [15] 1033 	add	ix,sp
   05B6 21 4D FF      [10] 1034 	ld	hl, #-179
   05B9 39            [11] 1035 	add	hl, sp
   05BA F9            [ 6] 1036 	ld	sp, hl
                           1037 ;aes_128.c:108: KeyExpansion(RoundKey, key);
   05BB 21 00 00      [10] 1038 	ld	hl, #0
   05BE 39            [11] 1039 	add	hl, sp
   05BF EB            [ 4] 1040 	ex	de, hl
   05C0 4B            [ 4] 1041 	ld	c, e
   05C1 42            [ 4] 1042 	ld	b, d
   05C2 D5            [11] 1043 	push	de
   05C3 DD 6E 06      [19] 1044 	ld	l, 6 (ix)
   05C6 DD 66 07      [19] 1045 	ld	h, 7 (ix)
   05C9 E5            [11] 1046 	push	hl
   05CA C5            [11] 1047 	push	bc
   05CB CDr05r00      [17] 1048 	call	_KeyExpansion
   05CE F1            [10] 1049 	pop	af
   05CF F1            [10] 1050 	pop	af
   05D0 D1            [10] 1051 	pop	de
                           1052 ;aes_128.c:110: AddRoundKey(0, state, RoundKey);
   05D1 4B            [ 4] 1053 	ld	c, e
   05D2 42            [ 4] 1054 	ld	b, d
   05D3 D5            [11] 1055 	push	de
   05D4 C5            [11] 1056 	push	bc
   05D5 DD 6E 04      [19] 1057 	ld	l, 4 (ix)
   05D8 DD 66 05      [19] 1058 	ld	h, 5 (ix)
   05DB E5            [11] 1059 	push	hl
   05DC AF            [ 4] 1060 	xor	a, a
   05DD F5            [11] 1061 	push	af
   05DE 33            [ 6] 1062 	inc	sp
   05DF CDrE8r03      [17] 1063 	call	_AddRoundKey
   05E2 F1            [10] 1064 	pop	af
   05E3 F1            [10] 1065 	pop	af
   05E4 33            [ 6] 1066 	inc	sp
   05E5 D1            [10] 1067 	pop	de
                           1068 ;aes_128.c:113: for (int round = 1; round < 10; ++round) {
   05E6 DD 73 FD      [19] 1069 	ld	-3 (ix), e
   05E9 DD 72 FE      [19] 1070 	ld	-2 (ix), d
   05EC 01 01 00      [10] 1071 	ld	bc, #0x0001
   05EF                    1072 00103$:
   05EF 79            [ 4] 1073 	ld	a, c
   05F0 D6 0A         [ 7] 1074 	sub	a, #0x0a
   05F2 78            [ 4] 1075 	ld	a, b
   05F3 17            [ 4] 1076 	rla
   05F4 3F            [ 4] 1077 	ccf
   05F5 1F            [ 4] 1078 	rra
   05F6 DE 80         [ 7] 1079 	sbc	a, #0x80
   05F8 30 3D         [12] 1080 	jr	NC,00101$
                           1081 ;aes_128.c:114: SubBytes(state);
   05FA C5            [11] 1082 	push	bc
   05FB D5            [11] 1083 	push	de
   05FC DD 6E 04      [19] 1084 	ld	l, 4 (ix)
   05FF DD 66 05      [19] 1085 	ld	h, 5 (ix)
   0602 E5            [11] 1086 	push	hl
   0603 CDr39r04      [17] 1087 	call	_SubBytes
   0606 F1            [10] 1088 	pop	af
   0607 DD 6E 04      [19] 1089 	ld	l, 4 (ix)
   060A DD 66 05      [19] 1090 	ld	h, 5 (ix)
   060D E5            [11] 1091 	push	hl
   060E CDr6Ar04      [17] 1092 	call	_ShiftRows
   0611 F1            [10] 1093 	pop	af
   0612 D1            [10] 1094 	pop	de
   0613 C1            [10] 1095 	pop	bc
                           1096 ;aes_128.c:117: AddRoundKey(round, state, RoundKey);
   0614 DD 6E FD      [19] 1097 	ld	l, -3 (ix)
   0617 DD 66 FE      [19] 1098 	ld	h, -2 (ix)
   061A DD 71 FF      [19] 1099 	ld	-1 (ix), c
   061D C5            [11] 1100 	push	bc
   061E D5            [11] 1101 	push	de
   061F E5            [11] 1102 	push	hl
   0620 DD 6E 04      [19] 1103 	ld	l, 4 (ix)
   0623 DD 66 05      [19] 1104 	ld	h, 5 (ix)
   0626 E5            [11] 1105 	push	hl
   0627 DD 7E FF      [19] 1106 	ld	a, -1 (ix)
   062A F5            [11] 1107 	push	af
   062B 33            [ 6] 1108 	inc	sp
   062C CDrE8r03      [17] 1109 	call	_AddRoundKey
   062F F1            [10] 1110 	pop	af
   0630 F1            [10] 1111 	pop	af
   0631 33            [ 6] 1112 	inc	sp
   0632 D1            [10] 1113 	pop	de
   0633 C1            [10] 1114 	pop	bc
                           1115 ;aes_128.c:113: for (int round = 1; round < 10; ++round) {
   0634 03            [ 6] 1116 	inc	bc
   0635 18 B8         [12] 1117 	jr	00103$
   0637                    1118 00101$:
                           1119 ;aes_128.c:121: SubBytes(state);
   0637 D5            [11] 1120 	push	de
   0638 DD 6E 04      [19] 1121 	ld	l, 4 (ix)
   063B DD 66 05      [19] 1122 	ld	h, 5 (ix)
   063E E5            [11] 1123 	push	hl
   063F CDr39r04      [17] 1124 	call	_SubBytes
   0642 F1            [10] 1125 	pop	af
   0643 DD 6E 04      [19] 1126 	ld	l, 4 (ix)
   0646 DD 66 05      [19] 1127 	ld	h, 5 (ix)
   0649 E5            [11] 1128 	push	hl
   064A CDr6Ar04      [17] 1129 	call	_ShiftRows
   064D F1            [10] 1130 	pop	af
   064E DD 6E 04      [19] 1131 	ld	l, 4 (ix)
   0651 DD 66 05      [19] 1132 	ld	h, 5 (ix)
   0654 E5            [11] 1133 	push	hl
   0655 3E 0A         [ 7] 1134 	ld	a, #0x0a
   0657 F5            [11] 1135 	push	af
   0658 33            [ 6] 1136 	inc	sp
   0659 CDrE8r03      [17] 1137 	call	_AddRoundKey
                           1138 ;aes_128.c:124: }
   065C DD F9         [10] 1139 	ld	sp,ix
   065E DD E1         [14] 1140 	pop	ix
   0660 C9            [10] 1141 	ret
                           1142 ;aes_128.c:126: int main() {
                           1143 ;	---------------------------------
                           1144 ; Function main
                           1145 ; ---------------------------------
   0661                    1146 _main::
   0661 DD E5         [15] 1147 	push	ix
   0663 DD 21 00 00   [14] 1148 	ld	ix,#0
   0667 DD 39         [15] 1149 	add	ix,sp
   0669 21 E0 FF      [10] 1150 	ld	hl, #-32
   066C 39            [11] 1151 	add	hl, sp
   066D F9            [ 6] 1152 	ld	sp, hl
                           1153 ;aes_128.c:127: uint8_t data[16] = {
   066E 21 00 00      [10] 1154 	ld	hl, #0
   0671 39            [11] 1155 	add	hl, sp
   0672 4D            [ 4] 1156 	ld	c, l
   0673 44            [ 4] 1157 	ld	b, h
   0674 3E 32         [ 7] 1158 	ld	a, #0x32
   0676 02            [ 7] 1159 	ld	(bc), a
   0677 69            [ 4] 1160 	ld	l, c
   0678 60            [ 4] 1161 	ld	h, b
   0679 23            [ 6] 1162 	inc	hl
   067A 36 43         [10] 1163 	ld	(hl), #0x43
   067C 69            [ 4] 1164 	ld	l, c
   067D 60            [ 4] 1165 	ld	h, b
   067E 23            [ 6] 1166 	inc	hl
   067F 23            [ 6] 1167 	inc	hl
   0680 36 F6         [10] 1168 	ld	(hl), #0xf6
   0682 69            [ 4] 1169 	ld	l, c
   0683 60            [ 4] 1170 	ld	h, b
   0684 23            [ 6] 1171 	inc	hl
   0685 23            [ 6] 1172 	inc	hl
   0686 23            [ 6] 1173 	inc	hl
   0687 36 A8         [10] 1174 	ld	(hl), #0xa8
   0689 21 04 00      [10] 1175 	ld	hl, #0x0004
   068C 09            [11] 1176 	add	hl, bc
   068D 36 88         [10] 1177 	ld	(hl), #0x88
   068F 21 05 00      [10] 1178 	ld	hl, #0x0005
   0692 09            [11] 1179 	add	hl, bc
   0693 36 5A         [10] 1180 	ld	(hl), #0x5a
   0695 21 06 00      [10] 1181 	ld	hl, #0x0006
   0698 09            [11] 1182 	add	hl, bc
   0699 36 30         [10] 1183 	ld	(hl), #0x30
   069B 21 07 00      [10] 1184 	ld	hl, #0x0007
   069E 09            [11] 1185 	add	hl, bc
   069F 36 8D         [10] 1186 	ld	(hl), #0x8d
   06A1 21 08 00      [10] 1187 	ld	hl, #0x0008
   06A4 09            [11] 1188 	add	hl, bc
   06A5 36 31         [10] 1189 	ld	(hl), #0x31
   06A7 21 09 00      [10] 1190 	ld	hl, #0x0009
   06AA 09            [11] 1191 	add	hl, bc
   06AB 36 31         [10] 1192 	ld	(hl), #0x31
   06AD 21 0A 00      [10] 1193 	ld	hl, #0x000a
   06B0 09            [11] 1194 	add	hl, bc
   06B1 36 98         [10] 1195 	ld	(hl), #0x98
   06B3 21 0B 00      [10] 1196 	ld	hl, #0x000b
   06B6 09            [11] 1197 	add	hl, bc
   06B7 36 A2         [10] 1198 	ld	(hl), #0xa2
   06B9 21 0C 00      [10] 1199 	ld	hl, #0x000c
   06BC 09            [11] 1200 	add	hl, bc
   06BD 36 E0         [10] 1201 	ld	(hl), #0xe0
   06BF 21 0D 00      [10] 1202 	ld	hl, #0x000d
   06C2 09            [11] 1203 	add	hl, bc
   06C3 36 37         [10] 1204 	ld	(hl), #0x37
   06C5 21 0E 00      [10] 1205 	ld	hl, #0x000e
   06C8 09            [11] 1206 	add	hl, bc
   06C9 36 07         [10] 1207 	ld	(hl), #0x07
   06CB 21 0F 00      [10] 1208 	ld	hl, #0x000f
   06CE 09            [11] 1209 	add	hl, bc
   06CF 36 34         [10] 1210 	ld	(hl), #0x34
                           1211 ;aes_128.c:132: uint8_t key[16] = { 
   06D1 21 10 00      [10] 1212 	ld	hl, #16
   06D4 39            [11] 1213 	add	hl, sp
   06D5 EB            [ 4] 1214 	ex	de, hl
   06D6 3E 2B         [ 7] 1215 	ld	a, #0x2b
   06D8 12            [ 7] 1216 	ld	(de), a
   06D9 6B            [ 4] 1217 	ld	l, e
   06DA 62            [ 4] 1218 	ld	h, d
   06DB 23            [ 6] 1219 	inc	hl
   06DC 36 7E         [10] 1220 	ld	(hl), #0x7e
   06DE 6B            [ 4] 1221 	ld	l, e
   06DF 62            [ 4] 1222 	ld	h, d
   06E0 23            [ 6] 1223 	inc	hl
   06E1 23            [ 6] 1224 	inc	hl
   06E2 36 15         [10] 1225 	ld	(hl), #0x15
   06E4 6B            [ 4] 1226 	ld	l, e
   06E5 62            [ 4] 1227 	ld	h, d
   06E6 23            [ 6] 1228 	inc	hl
   06E7 23            [ 6] 1229 	inc	hl
   06E8 23            [ 6] 1230 	inc	hl
   06E9 36 16         [10] 1231 	ld	(hl), #0x16
   06EB 21 04 00      [10] 1232 	ld	hl, #0x0004
   06EE 19            [11] 1233 	add	hl, de
   06EF 36 28         [10] 1234 	ld	(hl), #0x28
   06F1 21 05 00      [10] 1235 	ld	hl, #0x0005
   06F4 19            [11] 1236 	add	hl, de
   06F5 36 AE         [10] 1237 	ld	(hl), #0xae
   06F7 21 06 00      [10] 1238 	ld	hl, #0x0006
   06FA 19            [11] 1239 	add	hl, de
   06FB 36 D2         [10] 1240 	ld	(hl), #0xd2
   06FD 21 07 00      [10] 1241 	ld	hl, #0x0007
   0700 19            [11] 1242 	add	hl, de
   0701 36 A6         [10] 1243 	ld	(hl), #0xa6
   0703 21 08 00      [10] 1244 	ld	hl, #0x0008
   0706 19            [11] 1245 	add	hl, de
   0707 36 AB         [10] 1246 	ld	(hl), #0xab
   0709 21 09 00      [10] 1247 	ld	hl, #0x0009
   070C 19            [11] 1248 	add	hl, de
   070D 36 F7         [10] 1249 	ld	(hl), #0xf7
   070F 21 0A 00      [10] 1250 	ld	hl, #0x000a
   0712 19            [11] 1251 	add	hl, de
   0713 36 15         [10] 1252 	ld	(hl), #0x15
   0715 21 0B 00      [10] 1253 	ld	hl, #0x000b
   0718 19            [11] 1254 	add	hl, de
   0719 36 88         [10] 1255 	ld	(hl), #0x88
   071B 21 0C 00      [10] 1256 	ld	hl, #0x000c
   071E 19            [11] 1257 	add	hl, de
   071F 36 09         [10] 1258 	ld	(hl), #0x09
   0721 21 0D 00      [10] 1259 	ld	hl, #0x000d
   0724 19            [11] 1260 	add	hl, de
   0725 36 CF         [10] 1261 	ld	(hl), #0xcf
   0727 21 0E 00      [10] 1262 	ld	hl, #0x000e
   072A 19            [11] 1263 	add	hl, de
   072B 36 4F         [10] 1264 	ld	(hl), #0x4f
   072D 21 0F 00      [10] 1265 	ld	hl, #0x000f
   0730 19            [11] 1266 	add	hl, de
   0731 36 3C         [10] 1267 	ld	(hl), #0x3c
                           1268 ;aes_128.c:137: printf("--- System Start (Crypto Mode) ---\n");
   0733 C5            [11] 1269 	push	bc
   0734 D5            [11] 1270 	push	de
   0735 21r86r07      [10] 1271 	ld	hl, #___str_1
   0738 E5            [11] 1272 	push	hl
   0739 CDr00r00      [17] 1273 	call	_puts
   073C F1            [10] 1274 	pop	af
   073D D1            [10] 1275 	pop	de
   073E C1            [10] 1276 	pop	bc
                           1277 ;aes_128.c:140: AES_Encrypt(data, key);
   073F 69            [ 4] 1278 	ld	l, c
   0740 60            [ 4] 1279 	ld	h, b
   0741 C5            [11] 1280 	push	bc
   0742 D5            [11] 1281 	push	de
   0743 E5            [11] 1282 	push	hl
   0744 CDrAEr05      [17] 1283 	call	_AES_Encrypt
   0747 F1            [10] 1284 	pop	af
   0748 21rA9r07      [10] 1285 	ld	hl, #___str_2
   074B E3            [19] 1286 	ex	(sp),hl
   074C CDr00r00      [17] 1287 	call	_printf
   074F F1            [10] 1288 	pop	af
   0750 C1            [10] 1289 	pop	bc
                           1290 ;aes_128.c:143: for(int i=0; i<16; i++) printf("%02x ", data[i]);
   0751 11 00 00      [10] 1291 	ld	de, #0x0000
   0754                    1292 00103$:
   0754 7B            [ 4] 1293 	ld	a, e
   0755 D6 10         [ 7] 1294 	sub	a, #0x10
   0757 7A            [ 4] 1295 	ld	a, d
   0758 17            [ 4] 1296 	rla
   0759 3F            [ 4] 1297 	ccf
   075A 1F            [ 4] 1298 	rra
   075B DE 80         [ 7] 1299 	sbc	a, #0x80
   075D 30 17         [12] 1300 	jr	NC,00101$
   075F 69            [ 4] 1301 	ld	l, c
   0760 60            [ 4] 1302 	ld	h, b
   0761 19            [11] 1303 	add	hl, de
   0762 6E            [ 7] 1304 	ld	l, (hl)
   0763 26 00         [ 7] 1305 	ld	h, #0x00
   0765 C5            [11] 1306 	push	bc
   0766 D5            [11] 1307 	push	de
   0767 E5            [11] 1308 	push	hl
   0768 21rBAr07      [10] 1309 	ld	hl, #___str_3
   076B E5            [11] 1310 	push	hl
   076C CDr00r00      [17] 1311 	call	_printf
   076F F1            [10] 1312 	pop	af
   0770 F1            [10] 1313 	pop	af
   0771 D1            [10] 1314 	pop	de
   0772 C1            [10] 1315 	pop	bc
   0773 13            [ 6] 1316 	inc	de
   0774 18 DE         [12] 1317 	jr	00103$
   0776                    1318 00101$:
                           1319 ;aes_128.c:146: printf("--- System Shutdown ---\n");
   0776 21rC0r07      [10] 1320 	ld	hl, #___str_8
   0779 E5            [11] 1321 	push	hl
   077A CDr00r00      [17] 1322 	call	_puts
   077D F1            [10] 1323 	pop	af
                           1324 ;aes_128.c:147: return 0;
   077E 21 00 00      [10] 1325 	ld	hl, #0x0000
                           1326 ;aes_128.c:148: }
   0781 DD F9         [10] 1327 	ld	sp, ix
   0783 DD E1         [14] 1328 	pop	ix
   0785 C9            [10] 1329 	ret
   0786                    1330 ___str_1:
   0786 2D 2D 2D 20 53 79  1331 	.ascii "--- System Start (Crypto Mode) ---"
        73 74 65 6D 20 53
        74 61 72 74 20 28
        43 72 79 70 74 6F
        20 4D 6F 64 65 29
        20 2D 2D 2D
   07A8 00                 1332 	.db 0x00
   07A9                    1333 ___str_2:
   07A9 45 6E 63 72 79 70  1334 	.ascii "Encrypted Data: "
        74 65 64 20 44 61
        74 61 3A 20
   07B9 00                 1335 	.db 0x00
   07BA                    1336 ___str_3:
   07BA 25 30 32 78 20     1337 	.ascii "%02x "
   07BF 00                 1338 	.db 0x00
   07C0                    1339 ___str_8:
   07C0 0A                 1340 	.db 0x0a
   07C1 2D 2D 2D 20 53 79  1341 	.ascii "--- System Shutdown ---"
        73 74 65 6D 20 53
        68 75 74 64 6F 77
        6E 20 2D 2D 2D
   07D8 00                 1342 	.db 0x00
                           1343 	.area _CODE
                           1344 	.area _INITIALIZER
                           1345 	.area _CABS (ABS)
